
usb_first.elf:     file format elf32-littlearm

Sections:
Idx Name          Size      VMA       LMA       File off  Algn
  0 .isr_vector   00000188  08000000  08000000  00010000  2**0
                  CONTENTS, ALLOC, LOAD, READONLY, DATA
  1 .text         00003548  08000188  08000188  00010188  2**2
                  CONTENTS, ALLOC, LOAD, READONLY, CODE
  2 .rodata       00000080  080036d0  080036d0  000136d0  2**0
                  CONTENTS, ALLOC, LOAD, READONLY, DATA
  3 .ARM.extab    00000000  08003750  08003750  000201e0  2**0
                  CONTENTS
  4 .ARM          00000008  08003750  08003750  00013750  2**2
                  CONTENTS, ALLOC, LOAD, READONLY, DATA
  5 .preinit_array 00000000  08003758  08003758  000201e0  2**0
                  CONTENTS, ALLOC, LOAD, DATA
  6 .init_array   00000004  08003758  08003758  00013758  2**2
                  CONTENTS, ALLOC, LOAD, DATA
  7 .fini_array   00000004  0800375c  0800375c  0001375c  2**2
                  CONTENTS, ALLOC, LOAD, DATA
  8 .data         000001e0  20000000  08003760  00020000  2**2
                  CONTENTS, ALLOC, LOAD, DATA
  9 .bss          00001930  200001e0  08003940  000201e0  2**2
                  ALLOC
 10 ._user_heap_stack 00000800  20001b10  08003940  00021b10  2**0
                  ALLOC
 11 .ARM.attributes 00000030  00000000  00000000  000201e0  2**0
                  CONTENTS, READONLY
 12 .comment      0000007b  00000000  00000000  00020210  2**0
                  CONTENTS, READONLY
 13 .debug_frame  00000238  00000000  00000000  0002028c  2**2
                  CONTENTS, READONLY, DEBUGGING

Disassembly of section .text:

08000188 <__do_global_dtors_aux>:
 8000188:	b510      	push	{r4, lr}
 800018a:	4c05      	ldr	r4, [pc, #20]	; (80001a0 <__do_global_dtors_aux+0x18>)
 800018c:	7823      	ldrb	r3, [r4, #0]
 800018e:	b933      	cbnz	r3, 800019e <__do_global_dtors_aux+0x16>
 8000190:	4b04      	ldr	r3, [pc, #16]	; (80001a4 <__do_global_dtors_aux+0x1c>)
 8000192:	b113      	cbz	r3, 800019a <__do_global_dtors_aux+0x12>
 8000194:	4804      	ldr	r0, [pc, #16]	; (80001a8 <__do_global_dtors_aux+0x20>)
 8000196:	f3af 8000 	nop.w
 800019a:	2301      	movs	r3, #1
 800019c:	7023      	strb	r3, [r4, #0]
 800019e:	bd10      	pop	{r4, pc}
 80001a0:	200001e0 	.word	0x200001e0
 80001a4:	00000000 	.word	0x00000000
 80001a8:	080036b8 	.word	0x080036b8

080001ac <frame_dummy>:
 80001ac:	b508      	push	{r3, lr}
 80001ae:	4b03      	ldr	r3, [pc, #12]	; (80001bc <frame_dummy+0x10>)
 80001b0:	b11b      	cbz	r3, 80001ba <frame_dummy+0xe>
 80001b2:	4903      	ldr	r1, [pc, #12]	; (80001c0 <frame_dummy+0x14>)
 80001b4:	4803      	ldr	r0, [pc, #12]	; (80001c4 <frame_dummy+0x18>)
 80001b6:	f3af 8000 	nop.w
 80001ba:	bd08      	pop	{r3, pc}
 80001bc:	00000000 	.word	0x00000000
 80001c0:	200001e4 	.word	0x200001e4
 80001c4:	080036b8 	.word	0x080036b8

080001c8 <__aeabi_uldivmod>:
 80001c8:	b953      	cbnz	r3, 80001e0 <__aeabi_uldivmod+0x18>
 80001ca:	b94a      	cbnz	r2, 80001e0 <__aeabi_uldivmod+0x18>
 80001cc:	2900      	cmp	r1, #0
 80001ce:	bf08      	it	eq
 80001d0:	2800      	cmpeq	r0, #0
 80001d2:	bf1c      	itt	ne
 80001d4:	f04f 31ff 	movne.w	r1, #4294967295
 80001d8:	f04f 30ff 	movne.w	r0, #4294967295
 80001dc:	f000 b972 	b.w	80004c4 <__aeabi_idiv0>
 80001e0:	f1ad 0c08 	sub.w	ip, sp, #8
 80001e4:	e96d ce04 	strd	ip, lr, [sp, #-16]!
 80001e8:	f000 f806 	bl	80001f8 <__udivmoddi4>
 80001ec:	f8dd e004 	ldr.w	lr, [sp, #4]
 80001f0:	e9dd 2302 	ldrd	r2, r3, [sp, #8]
 80001f4:	b004      	add	sp, #16
 80001f6:	4770      	bx	lr

080001f8 <__udivmoddi4>:
 80001f8:	e92d 47f0 	stmdb	sp!, {r4, r5, r6, r7, r8, r9, sl, lr}
 80001fc:	9e08      	ldr	r6, [sp, #32]
 80001fe:	4604      	mov	r4, r0
 8000200:	4688      	mov	r8, r1
 8000202:	2b00      	cmp	r3, #0
 8000204:	d14b      	bne.n	800029e <__udivmoddi4+0xa6>
 8000206:	428a      	cmp	r2, r1
 8000208:	4615      	mov	r5, r2
 800020a:	d967      	bls.n	80002dc <__udivmoddi4+0xe4>
 800020c:	fab2 f282 	clz	r2, r2
 8000210:	b14a      	cbz	r2, 8000226 <__udivmoddi4+0x2e>
 8000212:	f1c2 0720 	rsb	r7, r2, #32
 8000216:	fa01 f302 	lsl.w	r3, r1, r2
 800021a:	fa20 f707 	lsr.w	r7, r0, r7
 800021e:	4095      	lsls	r5, r2
 8000220:	ea47 0803 	orr.w	r8, r7, r3
 8000224:	4094      	lsls	r4, r2
 8000226:	ea4f 4e15 	mov.w	lr, r5, lsr #16
 800022a:	0c23      	lsrs	r3, r4, #16
 800022c:	fbb8 f7fe 	udiv	r7, r8, lr
 8000230:	fa1f fc85 	uxth.w	ip, r5
 8000234:	fb0e 8817 	mls	r8, lr, r7, r8
 8000238:	ea43 4308 	orr.w	r3, r3, r8, lsl #16
 800023c:	fb07 f10c 	mul.w	r1, r7, ip
 8000240:	4299      	cmp	r1, r3
 8000242:	d909      	bls.n	8000258 <__udivmoddi4+0x60>
 8000244:	18eb      	adds	r3, r5, r3
 8000246:	f107 30ff 	add.w	r0, r7, #4294967295
 800024a:	f080 811b 	bcs.w	8000484 <__udivmoddi4+0x28c>
 800024e:	4299      	cmp	r1, r3
 8000250:	f240 8118 	bls.w	8000484 <__udivmoddi4+0x28c>
 8000254:	3f02      	subs	r7, #2
 8000256:	442b      	add	r3, r5
 8000258:	1a5b      	subs	r3, r3, r1
 800025a:	b2a4      	uxth	r4, r4
 800025c:	fbb3 f0fe 	udiv	r0, r3, lr
 8000260:	fb0e 3310 	mls	r3, lr, r0, r3
 8000264:	ea44 4403 	orr.w	r4, r4, r3, lsl #16
 8000268:	fb00 fc0c 	mul.w	ip, r0, ip
 800026c:	45a4      	cmp	ip, r4
 800026e:	d909      	bls.n	8000284 <__udivmoddi4+0x8c>
 8000270:	192c      	adds	r4, r5, r4
 8000272:	f100 33ff 	add.w	r3, r0, #4294967295
 8000276:	f080 8107 	bcs.w	8000488 <__udivmoddi4+0x290>
 800027a:	45a4      	cmp	ip, r4
 800027c:	f240 8104 	bls.w	8000488 <__udivmoddi4+0x290>
 8000280:	3802      	subs	r0, #2
 8000282:	442c      	add	r4, r5
 8000284:	ea40 4007 	orr.w	r0, r0, r7, lsl #16
 8000288:	eba4 040c 	sub.w	r4, r4, ip
 800028c:	2700      	movs	r7, #0
 800028e:	b11e      	cbz	r6, 8000298 <__udivmoddi4+0xa0>
 8000290:	40d4      	lsrs	r4, r2
 8000292:	2300      	movs	r3, #0
 8000294:	e9c6 4300 	strd	r4, r3, [r6]
 8000298:	4639      	mov	r1, r7
 800029a:	e8bd 87f0 	ldmia.w	sp!, {r4, r5, r6, r7, r8, r9, sl, pc}
 800029e:	428b      	cmp	r3, r1
 80002a0:	d909      	bls.n	80002b6 <__udivmoddi4+0xbe>
 80002a2:	2e00      	cmp	r6, #0
 80002a4:	f000 80eb 	beq.w	800047e <__udivmoddi4+0x286>
 80002a8:	2700      	movs	r7, #0
 80002aa:	e9c6 0100 	strd	r0, r1, [r6]
 80002ae:	4638      	mov	r0, r7
 80002b0:	4639      	mov	r1, r7
 80002b2:	e8bd 87f0 	ldmia.w	sp!, {r4, r5, r6, r7, r8, r9, sl, pc}
 80002b6:	fab3 f783 	clz	r7, r3
 80002ba:	2f00      	cmp	r7, #0
 80002bc:	d147      	bne.n	800034e <__udivmoddi4+0x156>
 80002be:	428b      	cmp	r3, r1
 80002c0:	d302      	bcc.n	80002c8 <__udivmoddi4+0xd0>
 80002c2:	4282      	cmp	r2, r0
 80002c4:	f200 80fa 	bhi.w	80004bc <__udivmoddi4+0x2c4>
 80002c8:	1a84      	subs	r4, r0, r2
 80002ca:	eb61 0303 	sbc.w	r3, r1, r3
 80002ce:	2001      	movs	r0, #1
 80002d0:	4698      	mov	r8, r3
 80002d2:	2e00      	cmp	r6, #0
 80002d4:	d0e0      	beq.n	8000298 <__udivmoddi4+0xa0>
 80002d6:	e9c6 4800 	strd	r4, r8, [r6]
 80002da:	e7dd      	b.n	8000298 <__udivmoddi4+0xa0>
 80002dc:	b902      	cbnz	r2, 80002e0 <__udivmoddi4+0xe8>
 80002de:	deff      	udf	#255	; 0xff
 80002e0:	fab2 f282 	clz	r2, r2
 80002e4:	2a00      	cmp	r2, #0
 80002e6:	f040 808f 	bne.w	8000408 <__udivmoddi4+0x210>
 80002ea:	1b49      	subs	r1, r1, r5
 80002ec:	ea4f 4e15 	mov.w	lr, r5, lsr #16
 80002f0:	fa1f f885 	uxth.w	r8, r5
 80002f4:	2701      	movs	r7, #1
 80002f6:	fbb1 fcfe 	udiv	ip, r1, lr
 80002fa:	0c23      	lsrs	r3, r4, #16
 80002fc:	fb0e 111c 	mls	r1, lr, ip, r1
 8000300:	ea43 4301 	orr.w	r3, r3, r1, lsl #16
 8000304:	fb08 f10c 	mul.w	r1, r8, ip
 8000308:	4299      	cmp	r1, r3
 800030a:	d907      	bls.n	800031c <__udivmoddi4+0x124>
 800030c:	18eb      	adds	r3, r5, r3
 800030e:	f10c 30ff 	add.w	r0, ip, #4294967295
 8000312:	d202      	bcs.n	800031a <__udivmoddi4+0x122>
 8000314:	4299      	cmp	r1, r3
 8000316:	f200 80cd 	bhi.w	80004b4 <__udivmoddi4+0x2bc>
 800031a:	4684      	mov	ip, r0
 800031c:	1a59      	subs	r1, r3, r1
 800031e:	b2a3      	uxth	r3, r4
 8000320:	fbb1 f0fe 	udiv	r0, r1, lr
 8000324:	fb0e 1410 	mls	r4, lr, r0, r1
 8000328:	ea43 4404 	orr.w	r4, r3, r4, lsl #16
 800032c:	fb08 f800 	mul.w	r8, r8, r0
 8000330:	45a0      	cmp	r8, r4
 8000332:	d907      	bls.n	8000344 <__udivmoddi4+0x14c>
 8000334:	192c      	adds	r4, r5, r4
 8000336:	f100 33ff 	add.w	r3, r0, #4294967295
 800033a:	d202      	bcs.n	8000342 <__udivmoddi4+0x14a>
 800033c:	45a0      	cmp	r8, r4
 800033e:	f200 80b6 	bhi.w	80004ae <__udivmoddi4+0x2b6>
 8000342:	4618      	mov	r0, r3
 8000344:	eba4 0408 	sub.w	r4, r4, r8
 8000348:	ea40 400c 	orr.w	r0, r0, ip, lsl #16
 800034c:	e79f      	b.n	800028e <__udivmoddi4+0x96>
 800034e:	f1c7 0c20 	rsb	ip, r7, #32
 8000352:	40bb      	lsls	r3, r7
 8000354:	fa22 fe0c 	lsr.w	lr, r2, ip
 8000358:	ea4e 0e03 	orr.w	lr, lr, r3
 800035c:	fa01 f407 	lsl.w	r4, r1, r7
 8000360:	fa20 f50c 	lsr.w	r5, r0, ip
 8000364:	fa21 f30c 	lsr.w	r3, r1, ip
 8000368:	ea4f 481e 	mov.w	r8, lr, lsr #16
 800036c:	4325      	orrs	r5, r4
 800036e:	fbb3 f9f8 	udiv	r9, r3, r8
 8000372:	0c2c      	lsrs	r4, r5, #16
 8000374:	fb08 3319 	mls	r3, r8, r9, r3
 8000378:	fa1f fa8e 	uxth.w	sl, lr
 800037c:	ea44 4303 	orr.w	r3, r4, r3, lsl #16
 8000380:	fb09 f40a 	mul.w	r4, r9, sl
 8000384:	429c      	cmp	r4, r3
 8000386:	fa02 f207 	lsl.w	r2, r2, r7
 800038a:	fa00 f107 	lsl.w	r1, r0, r7
 800038e:	d90b      	bls.n	80003a8 <__udivmoddi4+0x1b0>
 8000390:	eb1e 0303 	adds.w	r3, lr, r3
 8000394:	f109 30ff 	add.w	r0, r9, #4294967295
 8000398:	f080 8087 	bcs.w	80004aa <__udivmoddi4+0x2b2>
 800039c:	429c      	cmp	r4, r3
 800039e:	f240 8084 	bls.w	80004aa <__udivmoddi4+0x2b2>
 80003a2:	f1a9 0902 	sub.w	r9, r9, #2
 80003a6:	4473      	add	r3, lr
 80003a8:	1b1b      	subs	r3, r3, r4
 80003aa:	b2ad      	uxth	r5, r5
 80003ac:	fbb3 f0f8 	udiv	r0, r3, r8
 80003b0:	fb08 3310 	mls	r3, r8, r0, r3
 80003b4:	ea45 4403 	orr.w	r4, r5, r3, lsl #16
 80003b8:	fb00 fa0a 	mul.w	sl, r0, sl
 80003bc:	45a2      	cmp	sl, r4
 80003be:	d908      	bls.n	80003d2 <__udivmoddi4+0x1da>
 80003c0:	eb1e 0404 	adds.w	r4, lr, r4
 80003c4:	f100 33ff 	add.w	r3, r0, #4294967295
 80003c8:	d26b      	bcs.n	80004a2 <__udivmoddi4+0x2aa>
 80003ca:	45a2      	cmp	sl, r4
 80003cc:	d969      	bls.n	80004a2 <__udivmoddi4+0x2aa>
 80003ce:	3802      	subs	r0, #2
 80003d0:	4474      	add	r4, lr
 80003d2:	ea40 4009 	orr.w	r0, r0, r9, lsl #16
 80003d6:	fba0 8902 	umull	r8, r9, r0, r2
 80003da:	eba4 040a 	sub.w	r4, r4, sl
 80003de:	454c      	cmp	r4, r9
 80003e0:	46c2      	mov	sl, r8
 80003e2:	464b      	mov	r3, r9
 80003e4:	d354      	bcc.n	8000490 <__udivmoddi4+0x298>
 80003e6:	d051      	beq.n	800048c <__udivmoddi4+0x294>
 80003e8:	2e00      	cmp	r6, #0
 80003ea:	d069      	beq.n	80004c0 <__udivmoddi4+0x2c8>
 80003ec:	ebb1 050a 	subs.w	r5, r1, sl
 80003f0:	eb64 0403 	sbc.w	r4, r4, r3
 80003f4:	fa04 fc0c 	lsl.w	ip, r4, ip
 80003f8:	40fd      	lsrs	r5, r7
 80003fa:	40fc      	lsrs	r4, r7
 80003fc:	ea4c 0505 	orr.w	r5, ip, r5
 8000400:	e9c6 5400 	strd	r5, r4, [r6]
 8000404:	2700      	movs	r7, #0
 8000406:	e747      	b.n	8000298 <__udivmoddi4+0xa0>
 8000408:	f1c2 0320 	rsb	r3, r2, #32
 800040c:	fa20 f703 	lsr.w	r7, r0, r3
 8000410:	4095      	lsls	r5, r2
 8000412:	fa01 f002 	lsl.w	r0, r1, r2
 8000416:	fa21 f303 	lsr.w	r3, r1, r3
 800041a:	ea4f 4e15 	mov.w	lr, r5, lsr #16
 800041e:	4338      	orrs	r0, r7
 8000420:	0c01      	lsrs	r1, r0, #16
 8000422:	fbb3 f7fe 	udiv	r7, r3, lr
 8000426:	fa1f f885 	uxth.w	r8, r5
 800042a:	fb0e 3317 	mls	r3, lr, r7, r3
 800042e:	ea41 4103 	orr.w	r1, r1, r3, lsl #16
 8000432:	fb07 f308 	mul.w	r3, r7, r8
 8000436:	428b      	cmp	r3, r1
 8000438:	fa04 f402 	lsl.w	r4, r4, r2
 800043c:	d907      	bls.n	800044e <__udivmoddi4+0x256>
 800043e:	1869      	adds	r1, r5, r1
 8000440:	f107 3cff 	add.w	ip, r7, #4294967295
 8000444:	d22f      	bcs.n	80004a6 <__udivmoddi4+0x2ae>
 8000446:	428b      	cmp	r3, r1
 8000448:	d92d      	bls.n	80004a6 <__udivmoddi4+0x2ae>
 800044a:	3f02      	subs	r7, #2
 800044c:	4429      	add	r1, r5
 800044e:	1acb      	subs	r3, r1, r3
 8000450:	b281      	uxth	r1, r0
 8000452:	fbb3 f0fe 	udiv	r0, r3, lr
 8000456:	fb0e 3310 	mls	r3, lr, r0, r3
 800045a:	ea41 4103 	orr.w	r1, r1, r3, lsl #16
 800045e:	fb00 f308 	mul.w	r3, r0, r8
 8000462:	428b      	cmp	r3, r1
 8000464:	d907      	bls.n	8000476 <__udivmoddi4+0x27e>
 8000466:	1869      	adds	r1, r5, r1
 8000468:	f100 3cff 	add.w	ip, r0, #4294967295
 800046c:	d217      	bcs.n	800049e <__udivmoddi4+0x2a6>
 800046e:	428b      	cmp	r3, r1
 8000470:	d915      	bls.n	800049e <__udivmoddi4+0x2a6>
 8000472:	3802      	subs	r0, #2
 8000474:	4429      	add	r1, r5
 8000476:	1ac9      	subs	r1, r1, r3
 8000478:	ea40 4707 	orr.w	r7, r0, r7, lsl #16
 800047c:	e73b      	b.n	80002f6 <__udivmoddi4+0xfe>
 800047e:	4637      	mov	r7, r6
 8000480:	4630      	mov	r0, r6
 8000482:	e709      	b.n	8000298 <__udivmoddi4+0xa0>
 8000484:	4607      	mov	r7, r0
 8000486:	e6e7      	b.n	8000258 <__udivmoddi4+0x60>
 8000488:	4618      	mov	r0, r3
 800048a:	e6fb      	b.n	8000284 <__udivmoddi4+0x8c>
 800048c:	4541      	cmp	r1, r8
 800048e:	d2ab      	bcs.n	80003e8 <__udivmoddi4+0x1f0>
 8000490:	ebb8 0a02 	subs.w	sl, r8, r2
 8000494:	eb69 020e 	sbc.w	r2, r9, lr
 8000498:	3801      	subs	r0, #1
 800049a:	4613      	mov	r3, r2
 800049c:	e7a4      	b.n	80003e8 <__udivmoddi4+0x1f0>
 800049e:	4660      	mov	r0, ip
 80004a0:	e7e9      	b.n	8000476 <__udivmoddi4+0x27e>
 80004a2:	4618      	mov	r0, r3
 80004a4:	e795      	b.n	80003d2 <__udivmoddi4+0x1da>
 80004a6:	4667      	mov	r7, ip
 80004a8:	e7d1      	b.n	800044e <__udivmoddi4+0x256>
 80004aa:	4681      	mov	r9, r0
 80004ac:	e77c      	b.n	80003a8 <__udivmoddi4+0x1b0>
 80004ae:	3802      	subs	r0, #2
 80004b0:	442c      	add	r4, r5
 80004b2:	e747      	b.n	8000344 <__udivmoddi4+0x14c>
 80004b4:	f1ac 0c02 	sub.w	ip, ip, #2
 80004b8:	442b      	add	r3, r5
 80004ba:	e72f      	b.n	800031c <__udivmoddi4+0x124>
 80004bc:	4638      	mov	r0, r7
 80004be:	e708      	b.n	80002d2 <__udivmoddi4+0xda>
 80004c0:	4637      	mov	r7, r6
 80004c2:	e6e9      	b.n	8000298 <__udivmoddi4+0xa0>

080004c4 <__aeabi_idiv0>:
 80004c4:	4770      	bx	lr
 80004c6:	bf00      	nop

080004c8 <SystemClock_Config>:
 80004c8:	b530      	push	{r4, r5, lr}
 80004ca:	b095      	sub	sp, #84	; 0x54
 80004cc:	2210      	movs	r2, #16
 80004ce:	2100      	movs	r1, #0
 80004d0:	a80a      	add	r0, sp, #40	; 0x28
 80004d2:	f003 f827 	bl	8003524 <memset>
 80004d6:	2100      	movs	r1, #0
 80004d8:	2214      	movs	r2, #20
 80004da:	a803      	add	r0, sp, #12
 80004dc:	f003 f822 	bl	8003524 <memset>
 80004e0:	2400      	movs	r4, #0
 80004e2:	4b1b      	ldr	r3, [pc, #108]	; (8000550 <SystemClock_Config+0x88>)
 80004e4:	9401      	str	r4, [sp, #4]
 80004e6:	6c1a      	ldr	r2, [r3, #64]	; 0x40
 80004e8:	f042 5280 	orr.w	r2, r2, #268435456	; 0x10000000
 80004ec:	641a      	str	r2, [r3, #64]	; 0x40
 80004ee:	6c1b      	ldr	r3, [r3, #64]	; 0x40
 80004f0:	f003 5380 	and.w	r3, r3, #268435456	; 0x10000000
 80004f4:	9301      	str	r3, [sp, #4]
 80004f6:	9b01      	ldr	r3, [sp, #4]
 80004f8:	4b16      	ldr	r3, [pc, #88]	; (8000554 <SystemClock_Config+0x8c>)
 80004fa:	9402      	str	r4, [sp, #8]
 80004fc:	681a      	ldr	r2, [r3, #0]
 80004fe:	f442 4280 	orr.w	r2, r2, #16384	; 0x4000
 8000502:	601a      	str	r2, [r3, #0]
 8000504:	681b      	ldr	r3, [r3, #0]
 8000506:	f403 4380 	and.w	r3, r3, #16384	; 0x4000
 800050a:	9302      	str	r3, [sp, #8]
 800050c:	9b02      	ldr	r3, [sp, #8]
 800050e:	2201      	movs	r2, #1
 8000510:	f44f 3380 	mov.w	r3, #65536	; 0x10000
 8000514:	e9cd 2308 	strd	r2, r3, [sp, #32]
 8000518:	2502      	movs	r5, #2
 800051a:	f44f 0380 	mov.w	r3, #4194304	; 0x400000
 800051e:	2260      	movs	r2, #96	; 0x60
 8000520:	e9cd 530e 	strd	r5, r3, [sp, #56]	; 0x38
 8000524:	a808      	add	r0, sp, #32
 8000526:	2304      	movs	r3, #4
 8000528:	e9cd 3210 	strd	r3, r2, [sp, #64]	; 0x40
 800052c:	e9cd 5312 	strd	r5, r3, [sp, #72]	; 0x48
 8000530:	f001 f806 	bl	8001540 <HAL_RCC_OscConfig>
 8000534:	230f      	movs	r3, #15
 8000536:	e9cd 3503 	strd	r3, r5, [sp, #12]
 800053a:	2103      	movs	r1, #3
 800053c:	f44f 53a0 	mov.w	r3, #5120	; 0x1400
 8000540:	a803      	add	r0, sp, #12
 8000542:	9405      	str	r4, [sp, #20]
 8000544:	e9cd 3306 	strd	r3, r3, [sp, #24]
 8000548:	f001 f9ce 	bl	80018e8 <HAL_RCC_ClockConfig>
 800054c:	b015      	add	sp, #84	; 0x54
 800054e:	bd30      	pop	{r4, r5, pc}
 8000550:	40023800 	.word	0x40023800
 8000554:	40007000 	.word	0x40007000

08000558 <main>:
 8000558:	b500      	push	{lr}
 800055a:	b08b      	sub	sp, #44	; 0x2c
 800055c:	f000 f998 	bl	8000890 <HAL_Init>
 8000560:	f7ff ffb2 	bl	80004c8 <SystemClock_Config>
 8000564:	2214      	movs	r2, #20
 8000566:	2100      	movs	r1, #0
 8000568:	eb0d 0002 	add.w	r0, sp, r2
 800056c:	f002 ffda 	bl	8003524 <memset>
 8000570:	2400      	movs	r4, #0
 8000572:	4b4f      	ldr	r3, [pc, #316]	; (80006b0 <main+0x158>)
 8000574:	9401      	str	r4, [sp, #4]
 8000576:	6b1a      	ldr	r2, [r3, #48]	; 0x30
 8000578:	484e      	ldr	r0, [pc, #312]	; (80006b4 <main+0x15c>)
 800057a:	4e4f      	ldr	r6, [pc, #316]	; (80006b8 <main+0x160>)
 800057c:	f042 0280 	orr.w	r2, r2, #128	; 0x80
 8000580:	631a      	str	r2, [r3, #48]	; 0x30
 8000582:	6b1a      	ldr	r2, [r3, #48]	; 0x30
 8000584:	f002 0280 	and.w	r2, r2, #128	; 0x80
 8000588:	9201      	str	r2, [sp, #4]
 800058a:	9a01      	ldr	r2, [sp, #4]
 800058c:	9402      	str	r4, [sp, #8]
 800058e:	6b1a      	ldr	r2, [r3, #48]	; 0x30
 8000590:	f042 0202 	orr.w	r2, r2, #2
 8000594:	631a      	str	r2, [r3, #48]	; 0x30
 8000596:	6b1a      	ldr	r2, [r3, #48]	; 0x30
 8000598:	f002 0202 	and.w	r2, r2, #2
 800059c:	9202      	str	r2, [sp, #8]
 800059e:	9a02      	ldr	r2, [sp, #8]
 80005a0:	9403      	str	r4, [sp, #12]
 80005a2:	6b1a      	ldr	r2, [r3, #48]	; 0x30
 80005a4:	f042 0208 	orr.w	r2, r2, #8
 80005a8:	631a      	str	r2, [r3, #48]	; 0x30
 80005aa:	6b1a      	ldr	r2, [r3, #48]	; 0x30
 80005ac:	f002 0208 	and.w	r2, r2, #8
 80005b0:	9203      	str	r2, [sp, #12]
 80005b2:	9a03      	ldr	r2, [sp, #12]
 80005b4:	9404      	str	r4, [sp, #16]
 80005b6:	6b1a      	ldr	r2, [r3, #48]	; 0x30
 80005b8:	f042 0201 	orr.w	r2, r2, #1
 80005bc:	631a      	str	r2, [r3, #48]	; 0x30
 80005be:	6b1b      	ldr	r3, [r3, #48]	; 0x30
 80005c0:	f003 0301 	and.w	r3, r3, #1
 80005c4:	4622      	mov	r2, r4
 80005c6:	9304      	str	r3, [sp, #16]
 80005c8:	f44f 4170 	mov.w	r1, #61440	; 0xf000
 80005cc:	9b04      	ldr	r3, [sp, #16]
 80005ce:	f000 fae9 	bl	8000ba4 <HAL_GPIO_WritePin>
 80005d2:	f44f 4270 	mov.w	r2, #61440	; 0xf000
 80005d6:	2301      	movs	r3, #1
 80005d8:	a905      	add	r1, sp, #20
 80005da:	4836      	ldr	r0, [pc, #216]	; (80006b4 <main+0x15c>)
 80005dc:	e9cd 2305 	strd	r2, r3, [sp, #20]
 80005e0:	e9cd 4407 	strd	r4, r4, [sp, #28]
 80005e4:	f000 f9fe 	bl	80009e4 <HAL_GPIO_Init>
 80005e8:	4834      	ldr	r0, [pc, #208]	; (80006bc <main+0x164>)
 80005ea:	4935      	ldr	r1, [pc, #212]	; (80006c0 <main+0x168>)
 80005ec:	6104      	str	r4, [r0, #16]
 80005ee:	f44f 4361 	mov.w	r3, #57600	; 0xe100
 80005f2:	e9c0 1300 	strd	r1, r3, [r0]
 80005f6:	230c      	movs	r3, #12
 80005f8:	e9c0 3405 	strd	r3, r4, [r0, #20]
 80005fc:	e9c0 4402 	strd	r4, r4, [r0, #8]
 8000600:	61c4      	str	r4, [r0, #28]
 8000602:	f001 fac9 	bl	8001b98 <HAL_UART_Init>
 8000606:	f002 fd19 	bl	800303c <MX_USB_DEVICE_Init>
 800060a:	4c2a      	ldr	r4, [pc, #168]	; (80006b4 <main+0x15c>)
 800060c:	4635      	mov	r5, r6
 800060e:	f44f 70fa 	mov.w	r0, #500	; 0x1f4
 8000612:	f000 f969 	bl	80008e8 <HAL_Delay>
 8000616:	7833      	ldrb	r3, [r6, #0]
 8000618:	2b03      	cmp	r3, #3
 800061a:	bf84      	itt	hi
 800061c:	2300      	movhi	r3, #0
 800061e:	7033      	strbhi	r3, [r6, #0]
 8000620:	782b      	ldrb	r3, [r5, #0]
 8000622:	2b03      	cmp	r3, #3
 8000624:	d8f3      	bhi.n	800060e <main+0xb6>
 8000626:	e8df f003 	tbb	[pc, r3]
 800062a:	1902      	.short	0x1902
 800062c:	3929      	.short	0x3929
 800062e:	2201      	movs	r2, #1
 8000630:	f44f 5180 	mov.w	r1, #4096	; 0x1000
 8000634:	4620      	mov	r0, r4
 8000636:	702a      	strb	r2, [r5, #0]
 8000638:	f000 fab4 	bl	8000ba4 <HAL_GPIO_WritePin>
 800063c:	4921      	ldr	r1, [pc, #132]	; (80006c4 <main+0x16c>)
 800063e:	4822      	ldr	r0, [pc, #136]	; (80006c8 <main+0x170>)
 8000640:	f003 f830 	bl	80036a4 <strcpy>
 8000644:	2108      	movs	r1, #8
 8000646:	4820      	ldr	r0, [pc, #128]	; (80006c8 <main+0x170>)
 8000648:	f002 fd46 	bl	80030d8 <CDC_Transmit_FS>
 800064c:	f64f 73ff 	movw	r3, #65535	; 0xffff
 8000650:	2208      	movs	r2, #8
 8000652:	491d      	ldr	r1, [pc, #116]	; (80006c8 <main+0x170>)
 8000654:	4819      	ldr	r0, [pc, #100]	; (80006bc <main+0x164>)
 8000656:	f001 facd 	bl	8001bf4 <HAL_UART_Transmit>
 800065a:	e7d8      	b.n	800060e <main+0xb6>
 800065c:	2302      	movs	r3, #2
 800065e:	2200      	movs	r2, #0
 8000660:	f44f 5180 	mov.w	r1, #4096	; 0x1000
 8000664:	4620      	mov	r0, r4
 8000666:	702b      	strb	r3, [r5, #0]
 8000668:	f000 fa9c 	bl	8000ba4 <HAL_GPIO_WritePin>
 800066c:	f44f 5100 	mov.w	r1, #8192	; 0x2000
 8000670:	2201      	movs	r2, #1
 8000672:	4620      	mov	r0, r4
 8000674:	f000 fa96 	bl	8000ba4 <HAL_GPIO_WritePin>
 8000678:	4914      	ldr	r1, [pc, #80]	; (80006cc <main+0x174>)
 800067a:	e7e0      	b.n	800063e <main+0xe6>
 800067c:	2303      	movs	r3, #3
 800067e:	2200      	movs	r2, #0
 8000680:	f44f 5100 	mov.w	r1, #8192	; 0x2000
 8000684:	4620      	mov	r0, r4
 8000686:	702b      	strb	r3, [r5, #0]
 8000688:	f000 fa8c 	bl	8000ba4 <HAL_GPIO_WritePin>
 800068c:	f44f 4180 	mov.w	r1, #16384	; 0x4000
 8000690:	2201      	movs	r2, #1
 8000692:	4620      	mov	r0, r4
 8000694:	f000 fa86 	bl	8000ba4 <HAL_GPIO_WritePin>
 8000698:	490d      	ldr	r1, [pc, #52]	; (80006d0 <main+0x178>)
 800069a:	e7d0      	b.n	800063e <main+0xe6>
 800069c:	2304      	movs	r3, #4
 800069e:	f44f 4180 	mov.w	r1, #16384	; 0x4000
 80006a2:	2200      	movs	r2, #0
 80006a4:	4620      	mov	r0, r4
 80006a6:	702b      	strb	r3, [r5, #0]
 80006a8:	f000 fa7c 	bl	8000ba4 <HAL_GPIO_WritePin>
 80006ac:	4909      	ldr	r1, [pc, #36]	; (80006d4 <main+0x17c>)
 80006ae:	e7c6      	b.n	800063e <main+0xe6>
 80006b0:	40023800 	.word	0x40023800
 80006b4:	40020c00 	.word	0x40020c00
 80006b8:	20000260 	.word	0x20000260
 80006bc:	2000020c 	.word	0x2000020c
 80006c0:	40004800 	.word	0x40004800
 80006c4:	080036d0 	.word	0x080036d0
 80006c8:	2000024c 	.word	0x2000024c
 80006cc:	080036d8 	.word	0x080036d8
 80006d0:	080036e0 	.word	0x080036e0
 80006d4:	080036e8 	.word	0x080036e8

080006d8 <Error_Handler>:
 80006d8:	4770      	bx	lr
	...

080006dc <HAL_MspInit>:
 80006dc:	b082      	sub	sp, #8
 80006de:	4b0d      	ldr	r3, [pc, #52]	; (8000714 <HAL_MspInit+0x38>)
 80006e0:	2100      	movs	r1, #0
 80006e2:	9100      	str	r1, [sp, #0]
 80006e4:	6c5a      	ldr	r2, [r3, #68]	; 0x44
 80006e6:	f442 4280 	orr.w	r2, r2, #16384	; 0x4000
 80006ea:	645a      	str	r2, [r3, #68]	; 0x44
 80006ec:	6c5a      	ldr	r2, [r3, #68]	; 0x44
 80006ee:	f402 4280 	and.w	r2, r2, #16384	; 0x4000
 80006f2:	9200      	str	r2, [sp, #0]
 80006f4:	9a00      	ldr	r2, [sp, #0]
 80006f6:	9101      	str	r1, [sp, #4]
 80006f8:	6c1a      	ldr	r2, [r3, #64]	; 0x40
 80006fa:	f042 5280 	orr.w	r2, r2, #268435456	; 0x10000000
 80006fe:	641a      	str	r2, [r3, #64]	; 0x40
 8000700:	6c1b      	ldr	r3, [r3, #64]	; 0x40
 8000702:	f003 5380 	and.w	r3, r3, #268435456	; 0x10000000
 8000706:	9301      	str	r3, [sp, #4]
 8000708:	9b01      	ldr	r3, [sp, #4]
 800070a:	2007      	movs	r0, #7
 800070c:	b002      	add	sp, #8
 800070e:	f000 b8ff 	b.w	8000910 <HAL_NVIC_SetPriorityGrouping>
 8000712:	bf00      	nop
 8000714:	40023800 	.word	0x40023800

08000718 <HAL_UART_MspInit>:
 8000718:	b510      	push	{r4, lr}
 800071a:	4604      	mov	r4, r0
 800071c:	b088      	sub	sp, #32
 800071e:	2214      	movs	r2, #20
 8000720:	2100      	movs	r1, #0
 8000722:	a803      	add	r0, sp, #12
 8000724:	f002 fefe 	bl	8003524 <memset>
 8000728:	6822      	ldr	r2, [r4, #0]
 800072a:	4b14      	ldr	r3, [pc, #80]	; (800077c <HAL_UART_MspInit+0x64>)
 800072c:	429a      	cmp	r2, r3
 800072e:	d123      	bne.n	8000778 <HAL_UART_MspInit+0x60>
 8000730:	f503 33f8 	add.w	r3, r3, #126976	; 0x1f000
 8000734:	2100      	movs	r1, #0
 8000736:	9101      	str	r1, [sp, #4]
 8000738:	6c1a      	ldr	r2, [r3, #64]	; 0x40
 800073a:	4811      	ldr	r0, [pc, #68]	; (8000780 <HAL_UART_MspInit+0x68>)
 800073c:	f442 2280 	orr.w	r2, r2, #262144	; 0x40000
 8000740:	641a      	str	r2, [r3, #64]	; 0x40
 8000742:	6c1a      	ldr	r2, [r3, #64]	; 0x40
 8000744:	f402 2280 	and.w	r2, r2, #262144	; 0x40000
 8000748:	9201      	str	r2, [sp, #4]
 800074a:	9a01      	ldr	r2, [sp, #4]
 800074c:	9102      	str	r1, [sp, #8]
 800074e:	6b1a      	ldr	r2, [r3, #48]	; 0x30
 8000750:	f042 0202 	orr.w	r2, r2, #2
 8000754:	631a      	str	r2, [r3, #48]	; 0x30
 8000756:	6b1b      	ldr	r3, [r3, #48]	; 0x30
 8000758:	f003 0302 	and.w	r3, r3, #2
 800075c:	9302      	str	r3, [sp, #8]
 800075e:	9b02      	ldr	r3, [sp, #8]
 8000760:	f44f 6240 	mov.w	r2, #3072	; 0xc00
 8000764:	2302      	movs	r3, #2
 8000766:	2103      	movs	r1, #3
 8000768:	e9cd 2303 	strd	r2, r3, [sp, #12]
 800076c:	2307      	movs	r3, #7
 800076e:	e9cd 1306 	strd	r1, r3, [sp, #24]
 8000772:	a903      	add	r1, sp, #12
 8000774:	f000 f936 	bl	80009e4 <HAL_GPIO_Init>
 8000778:	b008      	add	sp, #32
 800077a:	bd10      	pop	{r4, pc}
 800077c:	40004800 	.word	0x40004800
 8000780:	40020400 	.word	0x40020400

08000784 <NMI_Handler>:
 8000784:	4770      	bx	lr

08000786 <HardFault_Handler>:
 8000786:	e7fe      	b.n	8000786 <HardFault_Handler>

08000788 <MemManage_Handler>:
 8000788:	e7fe      	b.n	8000788 <MemManage_Handler>

0800078a <BusFault_Handler>:
 800078a:	e7fe      	b.n	800078a <BusFault_Handler>

0800078c <UsageFault_Handler>:
 800078c:	e7fe      	b.n	800078c <UsageFault_Handler>

0800078e <SVC_Handler>:
 800078e:	4770      	bx	lr

08000790 <DebugMon_Handler>:
 8000790:	4770      	bx	lr

08000792 <PendSV_Handler>:
 8000792:	4770      	bx	lr

08000794 <SysTick_Handler>:
 8000794:	f000 b896 	b.w	80008c4 <HAL_IncTick>

08000798 <OTG_FS_IRQHandler>:
 8000798:	4801      	ldr	r0, [pc, #4]	; (80007a0 <OTG_FS_IRQHandler+0x8>)
 800079a:	f000 baaf 	b.w	8000cfc <HAL_PCD_IRQHandler>
 800079e:	bf00      	nop
 80007a0:	20001704 	.word	0x20001704

080007a4 <_sbrk>:
 80007a4:	b508      	push	{r3, lr}
 80007a6:	4b0a      	ldr	r3, [pc, #40]	; (80007d0 <_sbrk+0x2c>)
 80007a8:	6819      	ldr	r1, [r3, #0]
 80007aa:	4602      	mov	r2, r0
 80007ac:	b909      	cbnz	r1, 80007b2 <_sbrk+0xe>
 80007ae:	4909      	ldr	r1, [pc, #36]	; (80007d4 <_sbrk+0x30>)
 80007b0:	6019      	str	r1, [r3, #0]
 80007b2:	6818      	ldr	r0, [r3, #0]
 80007b4:	4669      	mov	r1, sp
 80007b6:	4402      	add	r2, r0
 80007b8:	428a      	cmp	r2, r1
 80007ba:	d906      	bls.n	80007ca <_sbrk+0x26>
 80007bc:	f002 fe78 	bl	80034b0 <__errno>
 80007c0:	230c      	movs	r3, #12
 80007c2:	6003      	str	r3, [r0, #0]
 80007c4:	f04f 30ff 	mov.w	r0, #4294967295
 80007c8:	bd08      	pop	{r3, pc}
 80007ca:	601a      	str	r2, [r3, #0]
 80007cc:	e7fc      	b.n	80007c8 <_sbrk+0x24>
 80007ce:	bf00      	nop
 80007d0:	200001fc 	.word	0x200001fc
 80007d4:	20001b10 	.word	0x20001b10

080007d8 <SystemInit>:
 80007d8:	4b05      	ldr	r3, [pc, #20]	; (80007f0 <SystemInit+0x18>)
 80007da:	f8d3 2088 	ldr.w	r2, [r3, #136]	; 0x88
 80007de:	f442 0270 	orr.w	r2, r2, #15728640	; 0xf00000
 80007e2:	f8c3 2088 	str.w	r2, [r3, #136]	; 0x88
 80007e6:	f04f 6200 	mov.w	r2, #134217728	; 0x8000000
 80007ea:	609a      	str	r2, [r3, #8]
 80007ec:	4770      	bx	lr
 80007ee:	bf00      	nop
 80007f0:	e000ed00 	.word	0xe000ed00

080007f4 <Reset_Handler>:
 80007f4:	f8df d034 	ldr.w	sp, [pc, #52]	; 800082c <LoopFillZerobss+0x14>
 80007f8:	2100      	movs	r1, #0
 80007fa:	e003      	b.n	8000804 <LoopCopyDataInit>

080007fc <CopyDataInit>:
 80007fc:	4b0c      	ldr	r3, [pc, #48]	; (8000830 <LoopFillZerobss+0x18>)
 80007fe:	585b      	ldr	r3, [r3, r1]
 8000800:	5043      	str	r3, [r0, r1]
 8000802:	3104      	adds	r1, #4

08000804 <LoopCopyDataInit>:
 8000804:	480b      	ldr	r0, [pc, #44]	; (8000834 <LoopFillZerobss+0x1c>)
 8000806:	4b0c      	ldr	r3, [pc, #48]	; (8000838 <LoopFillZerobss+0x20>)
 8000808:	1842      	adds	r2, r0, r1
 800080a:	429a      	cmp	r2, r3
 800080c:	d3f6      	bcc.n	80007fc <CopyDataInit>
 800080e:	4a0b      	ldr	r2, [pc, #44]	; (800083c <LoopFillZerobss+0x24>)
 8000810:	e002      	b.n	8000818 <LoopFillZerobss>

08000812 <FillZerobss>:
 8000812:	2300      	movs	r3, #0
 8000814:	f842 3b04 	str.w	r3, [r2], #4

08000818 <LoopFillZerobss>:
 8000818:	4b09      	ldr	r3, [pc, #36]	; (8000840 <LoopFillZerobss+0x28>)
 800081a:	429a      	cmp	r2, r3
 800081c:	d3f9      	bcc.n	8000812 <FillZerobss>
 800081e:	f7ff ffdb 	bl	80007d8 <SystemInit>
 8000822:	f002 fe4b 	bl	80034bc <__libc_init_array>
 8000826:	f7ff fe97 	bl	8000558 <main>
 800082a:	4770      	bx	lr
 800082c:	20020000 	.word	0x20020000
 8000830:	08003760 	.word	0x08003760
 8000834:	20000000 	.word	0x20000000
 8000838:	200001e0 	.word	0x200001e0
 800083c:	200001e0 	.word	0x200001e0
 8000840:	20001b10 	.word	0x20001b10

08000844 <ADC_IRQHandler>:
 8000844:	e7fe      	b.n	8000844 <ADC_IRQHandler>
	...

08000848 <HAL_InitTick>:
 8000848:	b538      	push	{r3, r4, r5, lr}
 800084a:	4a0e      	ldr	r2, [pc, #56]	; (8000884 <HAL_InitTick+0x3c>)
 800084c:	4b0e      	ldr	r3, [pc, #56]	; (8000888 <HAL_InitTick+0x40>)
 800084e:	4605      	mov	r5, r0
 8000850:	7818      	ldrb	r0, [r3, #0]
 8000852:	f44f 737a 	mov.w	r3, #1000	; 0x3e8
 8000856:	fbb3 f3f0 	udiv	r3, r3, r0
 800085a:	6810      	ldr	r0, [r2, #0]
 800085c:	fbb0 f0f3 	udiv	r0, r0, r3
 8000860:	f000 f8aa 	bl	80009b8 <HAL_SYSTICK_Config>
 8000864:	4604      	mov	r4, r0
 8000866:	b958      	cbnz	r0, 8000880 <HAL_InitTick+0x38>
 8000868:	2d0f      	cmp	r5, #15
 800086a:	d809      	bhi.n	8000880 <HAL_InitTick+0x38>
 800086c:	4602      	mov	r2, r0
 800086e:	4629      	mov	r1, r5
 8000870:	f04f 30ff 	mov.w	r0, #4294967295
 8000874:	f000 f85e 	bl	8000934 <HAL_NVIC_SetPriority>
 8000878:	4b04      	ldr	r3, [pc, #16]	; (800088c <HAL_InitTick+0x44>)
 800087a:	4620      	mov	r0, r4
 800087c:	601d      	str	r5, [r3, #0]
 800087e:	bd38      	pop	{r3, r4, r5, pc}
 8000880:	2001      	movs	r0, #1
 8000882:	e7fc      	b.n	800087e <HAL_InitTick+0x36>
 8000884:	20000000 	.word	0x20000000
 8000888:	20000004 	.word	0x20000004
 800088c:	20000008 	.word	0x20000008

08000890 <HAL_Init>:
 8000890:	b508      	push	{r3, lr}
 8000892:	4b0b      	ldr	r3, [pc, #44]	; (80008c0 <HAL_Init+0x30>)
 8000894:	681a      	ldr	r2, [r3, #0]
 8000896:	f442 7200 	orr.w	r2, r2, #512	; 0x200
 800089a:	601a      	str	r2, [r3, #0]
 800089c:	681a      	ldr	r2, [r3, #0]
 800089e:	f442 6280 	orr.w	r2, r2, #1024	; 0x400
 80008a2:	601a      	str	r2, [r3, #0]
 80008a4:	681a      	ldr	r2, [r3, #0]
 80008a6:	f442 7280 	orr.w	r2, r2, #256	; 0x100
 80008aa:	601a      	str	r2, [r3, #0]
 80008ac:	2003      	movs	r0, #3
 80008ae:	f000 f82f 	bl	8000910 <HAL_NVIC_SetPriorityGrouping>
 80008b2:	2000      	movs	r0, #0
 80008b4:	f7ff ffc8 	bl	8000848 <HAL_InitTick>
 80008b8:	f7ff ff10 	bl	80006dc <HAL_MspInit>
 80008bc:	2000      	movs	r0, #0
 80008be:	bd08      	pop	{r3, pc}
 80008c0:	40023c00 	.word	0x40023c00

080008c4 <HAL_IncTick>:
 80008c4:	4a03      	ldr	r2, [pc, #12]	; (80008d4 <HAL_IncTick+0x10>)
 80008c6:	4b04      	ldr	r3, [pc, #16]	; (80008d8 <HAL_IncTick+0x14>)
 80008c8:	6811      	ldr	r1, [r2, #0]
 80008ca:	781b      	ldrb	r3, [r3, #0]
 80008cc:	440b      	add	r3, r1
 80008ce:	6013      	str	r3, [r2, #0]
 80008d0:	4770      	bx	lr
 80008d2:	bf00      	nop
 80008d4:	20000264 	.word	0x20000264
 80008d8:	20000004 	.word	0x20000004

080008dc <HAL_GetTick>:
 80008dc:	4b01      	ldr	r3, [pc, #4]	; (80008e4 <HAL_GetTick+0x8>)
 80008de:	6818      	ldr	r0, [r3, #0]
 80008e0:	4770      	bx	lr
 80008e2:	bf00      	nop
 80008e4:	20000264 	.word	0x20000264

080008e8 <HAL_Delay>:
 80008e8:	b538      	push	{r3, r4, r5, lr}
 80008ea:	4604      	mov	r4, r0
 80008ec:	f7ff fff6 	bl	80008dc <HAL_GetTick>
 80008f0:	1c63      	adds	r3, r4, #1
 80008f2:	bf1c      	itt	ne
 80008f4:	4b05      	ldrne	r3, [pc, #20]	; (800090c <HAL_Delay+0x24>)
 80008f6:	781b      	ldrbne	r3, [r3, #0]
 80008f8:	4605      	mov	r5, r0
 80008fa:	bf18      	it	ne
 80008fc:	18e4      	addne	r4, r4, r3
 80008fe:	f7ff ffed 	bl	80008dc <HAL_GetTick>
 8000902:	1b40      	subs	r0, r0, r5
 8000904:	42a0      	cmp	r0, r4
 8000906:	d3fa      	bcc.n	80008fe <HAL_Delay+0x16>
 8000908:	bd38      	pop	{r3, r4, r5, pc}
 800090a:	bf00      	nop
 800090c:	20000004 	.word	0x20000004

08000910 <HAL_NVIC_SetPriorityGrouping>:
 8000910:	4a07      	ldr	r2, [pc, #28]	; (8000930 <HAL_NVIC_SetPriorityGrouping+0x20>)
 8000912:	68d3      	ldr	r3, [r2, #12]
 8000914:	f423 63e0 	bic.w	r3, r3, #1792	; 0x700
 8000918:	041b      	lsls	r3, r3, #16
 800091a:	0c1b      	lsrs	r3, r3, #16
 800091c:	f043 63bf 	orr.w	r3, r3, #100139008	; 0x5f80000
 8000920:	0200      	lsls	r0, r0, #8
 8000922:	f443 3300 	orr.w	r3, r3, #131072	; 0x20000
 8000926:	f400 60e0 	and.w	r0, r0, #1792	; 0x700
 800092a:	4303      	orrs	r3, r0
 800092c:	60d3      	str	r3, [r2, #12]
 800092e:	4770      	bx	lr
 8000930:	e000ed00 	.word	0xe000ed00

08000934 <HAL_NVIC_SetPriority>:
 8000934:	4b17      	ldr	r3, [pc, #92]	; (8000994 <HAL_NVIC_SetPriority+0x60>)
 8000936:	b570      	push	{r4, r5, r6, lr}
 8000938:	68dc      	ldr	r4, [r3, #12]
 800093a:	f3c4 2402 	ubfx	r4, r4, #8, #3
 800093e:	f1c4 0507 	rsb	r5, r4, #7
 8000942:	2d04      	cmp	r5, #4
 8000944:	f104 0304 	add.w	r3, r4, #4
 8000948:	bf28      	it	cs
 800094a:	2504      	movcs	r5, #4
 800094c:	f04f 36ff 	mov.w	r6, #4294967295
 8000950:	2b06      	cmp	r3, #6
 8000952:	fa06 f305 	lsl.w	r3, r6, r5
 8000956:	bf8c      	ite	hi
 8000958:	3c03      	subhi	r4, #3
 800095a:	2400      	movls	r4, #0
 800095c:	ea21 0303 	bic.w	r3, r1, r3
 8000960:	40a3      	lsls	r3, r4
 8000962:	fa06 f404 	lsl.w	r4, r6, r4
 8000966:	ea22 0404 	bic.w	r4, r2, r4
 800096a:	2800      	cmp	r0, #0
 800096c:	ea43 0304 	orr.w	r3, r3, r4
 8000970:	bfa8      	it	ge
 8000972:	f100 4060 	addge.w	r0, r0, #3758096384	; 0xe0000000
 8000976:	ea4f 1303 	mov.w	r3, r3, lsl #4
 800097a:	bfbc      	itt	lt
 800097c:	f000 000f 	andlt.w	r0, r0, #15
 8000980:	4a05      	ldrlt	r2, [pc, #20]	; (8000998 <HAL_NVIC_SetPriority+0x64>)
 8000982:	b2db      	uxtb	r3, r3
 8000984:	bfaa      	itet	ge
 8000986:	f500 4061 	addge.w	r0, r0, #57600	; 0xe100
 800098a:	5413      	strblt	r3, [r2, r0]
 800098c:	f880 3300 	strbge.w	r3, [r0, #768]	; 0x300
 8000990:	bd70      	pop	{r4, r5, r6, pc}
 8000992:	bf00      	nop
 8000994:	e000ed00 	.word	0xe000ed00
 8000998:	e000ed14 	.word	0xe000ed14

0800099c <HAL_NVIC_EnableIRQ>:
 800099c:	2800      	cmp	r0, #0
 800099e:	db08      	blt.n	80009b2 <HAL_NVIC_EnableIRQ+0x16>
 80009a0:	0942      	lsrs	r2, r0, #5
 80009a2:	2301      	movs	r3, #1
 80009a4:	f000 001f 	and.w	r0, r0, #31
 80009a8:	fa03 f000 	lsl.w	r0, r3, r0
 80009ac:	4b01      	ldr	r3, [pc, #4]	; (80009b4 <HAL_NVIC_EnableIRQ+0x18>)
 80009ae:	f843 0022 	str.w	r0, [r3, r2, lsl #2]
 80009b2:	4770      	bx	lr
 80009b4:	e000e100 	.word	0xe000e100

080009b8 <HAL_SYSTICK_Config>:
 80009b8:	3801      	subs	r0, #1
 80009ba:	f1b0 7f80 	cmp.w	r0, #16777216	; 0x1000000
 80009be:	d20a      	bcs.n	80009d6 <HAL_SYSTICK_Config+0x1e>
 80009c0:	4b06      	ldr	r3, [pc, #24]	; (80009dc <HAL_SYSTICK_Config+0x24>)
 80009c2:	4a07      	ldr	r2, [pc, #28]	; (80009e0 <HAL_SYSTICK_Config+0x28>)
 80009c4:	6058      	str	r0, [r3, #4]
 80009c6:	21f0      	movs	r1, #240	; 0xf0
 80009c8:	f882 1023 	strb.w	r1, [r2, #35]	; 0x23
 80009cc:	2000      	movs	r0, #0
 80009ce:	2207      	movs	r2, #7
 80009d0:	6098      	str	r0, [r3, #8]
 80009d2:	601a      	str	r2, [r3, #0]
 80009d4:	4770      	bx	lr
 80009d6:	2001      	movs	r0, #1
 80009d8:	4770      	bx	lr
 80009da:	bf00      	nop
 80009dc:	e000e010 	.word	0xe000e010
 80009e0:	e000ed00 	.word	0xe000ed00

080009e4 <HAL_GPIO_Init>:
 80009e4:	e92d 4ff0 	stmdb	sp!, {r4, r5, r6, r7, r8, r9, sl, fp, lr}
 80009e8:	b085      	sub	sp, #20
 80009ea:	680b      	ldr	r3, [r1, #0]
 80009ec:	f8df 81ac 	ldr.w	r8, [pc, #428]	; 8000b9c <HAL_GPIO_Init+0x1b8>
 80009f0:	4a68      	ldr	r2, [pc, #416]	; (8000b94 <HAL_GPIO_Init+0x1b0>)
 80009f2:	f8df 91ac 	ldr.w	r9, [pc, #428]	; 8000ba0 <HAL_GPIO_Init+0x1bc>
 80009f6:	9301      	str	r3, [sp, #4]
 80009f8:	2300      	movs	r3, #0
 80009fa:	2401      	movs	r4, #1
 80009fc:	9d01      	ldr	r5, [sp, #4]
 80009fe:	409c      	lsls	r4, r3
 8000a00:	4025      	ands	r5, r4
 8000a02:	42ac      	cmp	r4, r5
 8000a04:	f040 80b0 	bne.w	8000b68 <HAL_GPIO_Init+0x184>
 8000a08:	684c      	ldr	r4, [r1, #4]
 8000a0a:	f024 0c10 	bic.w	ip, r4, #16
 8000a0e:	ea4f 0e43 	mov.w	lr, r3, lsl #1
 8000a12:	2603      	movs	r6, #3
 8000a14:	f10c 37ff 	add.w	r7, ip, #4294967295
 8000a18:	fa06 f60e 	lsl.w	r6, r6, lr
 8000a1c:	2f01      	cmp	r7, #1
 8000a1e:	ea6f 0606 	mvn.w	r6, r6
 8000a22:	d811      	bhi.n	8000a48 <HAL_GPIO_Init+0x64>
 8000a24:	6887      	ldr	r7, [r0, #8]
 8000a26:	ea07 0a06 	and.w	sl, r7, r6
 8000a2a:	68cf      	ldr	r7, [r1, #12]
 8000a2c:	fa07 f70e 	lsl.w	r7, r7, lr
 8000a30:	ea47 070a 	orr.w	r7, r7, sl
 8000a34:	6087      	str	r7, [r0, #8]
 8000a36:	6847      	ldr	r7, [r0, #4]
 8000a38:	ea27 0a05 	bic.w	sl, r7, r5
 8000a3c:	f3c4 1700 	ubfx	r7, r4, #4, #1
 8000a40:	409f      	lsls	r7, r3
 8000a42:	ea47 070a 	orr.w	r7, r7, sl
 8000a46:	6047      	str	r7, [r0, #4]
 8000a48:	68c7      	ldr	r7, [r0, #12]
 8000a4a:	ea07 0a06 	and.w	sl, r7, r6
 8000a4e:	688f      	ldr	r7, [r1, #8]
 8000a50:	fa07 f70e 	lsl.w	r7, r7, lr
 8000a54:	ea47 070a 	orr.w	r7, r7, sl
 8000a58:	f1bc 0f02 	cmp.w	ip, #2
 8000a5c:	60c7      	str	r7, [r0, #12]
 8000a5e:	d116      	bne.n	8000a8e <HAL_GPIO_Init+0xaa>
 8000a60:	ea4f 0ad3 	mov.w	sl, r3, lsr #3
 8000a64:	eb00 0a8a 	add.w	sl, r0, sl, lsl #2
 8000a68:	f003 0b07 	and.w	fp, r3, #7
 8000a6c:	f8da 7020 	ldr.w	r7, [sl, #32]
 8000a70:	ea4f 0b8b 	mov.w	fp, fp, lsl #2
 8000a74:	f04f 0c0f 	mov.w	ip, #15
 8000a78:	fa0c fc0b 	lsl.w	ip, ip, fp
 8000a7c:	ea27 0c0c 	bic.w	ip, r7, ip
 8000a80:	690f      	ldr	r7, [r1, #16]
 8000a82:	fa07 f70b 	lsl.w	r7, r7, fp
 8000a86:	ea47 070c 	orr.w	r7, r7, ip
 8000a8a:	f8ca 7020 	str.w	r7, [sl, #32]
 8000a8e:	6807      	ldr	r7, [r0, #0]
 8000a90:	403e      	ands	r6, r7
 8000a92:	f004 0703 	and.w	r7, r4, #3
 8000a96:	fa07 fe0e 	lsl.w	lr, r7, lr
 8000a9a:	ea4e 0606 	orr.w	r6, lr, r6
 8000a9e:	6006      	str	r6, [r0, #0]
 8000aa0:	00e6      	lsls	r6, r4, #3
 8000aa2:	d561      	bpl.n	8000b68 <HAL_GPIO_Init+0x184>
 8000aa4:	f04f 0b00 	mov.w	fp, #0
 8000aa8:	f8cd b00c 	str.w	fp, [sp, #12]
 8000aac:	f8d8 7044 	ldr.w	r7, [r8, #68]	; 0x44
 8000ab0:	4e39      	ldr	r6, [pc, #228]	; (8000b98 <HAL_GPIO_Init+0x1b4>)
 8000ab2:	f447 4780 	orr.w	r7, r7, #16384	; 0x4000
 8000ab6:	f8c8 7044 	str.w	r7, [r8, #68]	; 0x44
 8000aba:	f8d8 7044 	ldr.w	r7, [r8, #68]	; 0x44
 8000abe:	f407 4780 	and.w	r7, r7, #16384	; 0x4000
 8000ac2:	9703      	str	r7, [sp, #12]
 8000ac4:	9f03      	ldr	r7, [sp, #12]
 8000ac6:	f023 0703 	bic.w	r7, r3, #3
 8000aca:	f107 4780 	add.w	r7, r7, #1073741824	; 0x40000000
 8000ace:	f507 379c 	add.w	r7, r7, #79872	; 0x13800
 8000ad2:	f003 0e03 	and.w	lr, r3, #3
 8000ad6:	f8d7 a008 	ldr.w	sl, [r7, #8]
 8000ada:	ea4f 0e8e 	mov.w	lr, lr, lsl #2
 8000ade:	f04f 0c0f 	mov.w	ip, #15
 8000ae2:	fa0c fc0e 	lsl.w	ip, ip, lr
 8000ae6:	42b0      	cmp	r0, r6
 8000ae8:	ea2a 0c0c 	bic.w	ip, sl, ip
 8000aec:	d043      	beq.n	8000b76 <HAL_GPIO_Init+0x192>
 8000aee:	f506 6680 	add.w	r6, r6, #1024	; 0x400
 8000af2:	42b0      	cmp	r0, r6
 8000af4:	d041      	beq.n	8000b7a <HAL_GPIO_Init+0x196>
 8000af6:	f506 6680 	add.w	r6, r6, #1024	; 0x400
 8000afa:	42b0      	cmp	r0, r6
 8000afc:	d03f      	beq.n	8000b7e <HAL_GPIO_Init+0x19a>
 8000afe:	f506 6680 	add.w	r6, r6, #1024	; 0x400
 8000b02:	42b0      	cmp	r0, r6
 8000b04:	d03d      	beq.n	8000b82 <HAL_GPIO_Init+0x19e>
 8000b06:	f506 6680 	add.w	r6, r6, #1024	; 0x400
 8000b0a:	42b0      	cmp	r0, r6
 8000b0c:	d03b      	beq.n	8000b86 <HAL_GPIO_Init+0x1a2>
 8000b0e:	4548      	cmp	r0, r9
 8000b10:	d03b      	beq.n	8000b8a <HAL_GPIO_Init+0x1a6>
 8000b12:	f506 6600 	add.w	r6, r6, #2048	; 0x800
 8000b16:	42b0      	cmp	r0, r6
 8000b18:	d039      	beq.n	8000b8e <HAL_GPIO_Init+0x1aa>
 8000b1a:	f506 6680 	add.w	r6, r6, #1024	; 0x400
 8000b1e:	42b0      	cmp	r0, r6
 8000b20:	bf14      	ite	ne
 8000b22:	2608      	movne	r6, #8
 8000b24:	2607      	moveq	r6, #7
 8000b26:	fa06 f60e 	lsl.w	r6, r6, lr
 8000b2a:	ea46 060c 	orr.w	r6, r6, ip
 8000b2e:	60be      	str	r6, [r7, #8]
 8000b30:	6816      	ldr	r6, [r2, #0]
 8000b32:	43ef      	mvns	r7, r5
 8000b34:	f414 3f80 	tst.w	r4, #65536	; 0x10000
 8000b38:	bf0c      	ite	eq
 8000b3a:	403e      	andeq	r6, r7
 8000b3c:	432e      	orrne	r6, r5
 8000b3e:	6016      	str	r6, [r2, #0]
 8000b40:	6856      	ldr	r6, [r2, #4]
 8000b42:	f414 3f00 	tst.w	r4, #131072	; 0x20000
 8000b46:	bf0c      	ite	eq
 8000b48:	403e      	andeq	r6, r7
 8000b4a:	432e      	orrne	r6, r5
 8000b4c:	6056      	str	r6, [r2, #4]
 8000b4e:	6896      	ldr	r6, [r2, #8]
 8000b50:	f414 1f80 	tst.w	r4, #1048576	; 0x100000
 8000b54:	bf0c      	ite	eq
 8000b56:	403e      	andeq	r6, r7
 8000b58:	432e      	orrne	r6, r5
 8000b5a:	6096      	str	r6, [r2, #8]
 8000b5c:	68d6      	ldr	r6, [r2, #12]
 8000b5e:	02a4      	lsls	r4, r4, #10
 8000b60:	bf54      	ite	pl
 8000b62:	403e      	andpl	r6, r7
 8000b64:	432e      	orrmi	r6, r5
 8000b66:	60d6      	str	r6, [r2, #12]
 8000b68:	3301      	adds	r3, #1
 8000b6a:	2b10      	cmp	r3, #16
 8000b6c:	f47f af45 	bne.w	80009fa <HAL_GPIO_Init+0x16>
 8000b70:	b005      	add	sp, #20
 8000b72:	e8bd 8ff0 	ldmia.w	sp!, {r4, r5, r6, r7, r8, r9, sl, fp, pc}
 8000b76:	465e      	mov	r6, fp
 8000b78:	e7d5      	b.n	8000b26 <HAL_GPIO_Init+0x142>
 8000b7a:	2601      	movs	r6, #1
 8000b7c:	e7d3      	b.n	8000b26 <HAL_GPIO_Init+0x142>
 8000b7e:	2602      	movs	r6, #2
 8000b80:	e7d1      	b.n	8000b26 <HAL_GPIO_Init+0x142>
 8000b82:	2603      	movs	r6, #3
 8000b84:	e7cf      	b.n	8000b26 <HAL_GPIO_Init+0x142>
 8000b86:	2604      	movs	r6, #4
 8000b88:	e7cd      	b.n	8000b26 <HAL_GPIO_Init+0x142>
 8000b8a:	2605      	movs	r6, #5
 8000b8c:	e7cb      	b.n	8000b26 <HAL_GPIO_Init+0x142>
 8000b8e:	2606      	movs	r6, #6
 8000b90:	e7c9      	b.n	8000b26 <HAL_GPIO_Init+0x142>
 8000b92:	bf00      	nop
 8000b94:	40013c00 	.word	0x40013c00
 8000b98:	40020000 	.word	0x40020000
 8000b9c:	40023800 	.word	0x40023800
 8000ba0:	40021400 	.word	0x40021400

08000ba4 <HAL_GPIO_WritePin>:
 8000ba4:	b10a      	cbz	r2, 8000baa <HAL_GPIO_WritePin+0x6>
 8000ba6:	6181      	str	r1, [r0, #24]
 8000ba8:	4770      	bx	lr
 8000baa:	0409      	lsls	r1, r1, #16
 8000bac:	e7fb      	b.n	8000ba6 <HAL_GPIO_WritePin+0x2>

08000bae <HAL_PCD_Init>:
 8000bae:	b5f0      	push	{r4, r5, r6, r7, lr}
 8000bb0:	4604      	mov	r4, r0
 8000bb2:	b08b      	sub	sp, #44	; 0x2c
 8000bb4:	b360      	cbz	r0, 8000c10 <HAL_PCD_Init+0x62>
 8000bb6:	f890 33bd 	ldrb.w	r3, [r0, #957]	; 0x3bd
 8000bba:	6805      	ldr	r5, [r0, #0]
 8000bbc:	f003 02ff 	and.w	r2, r3, #255	; 0xff
 8000bc0:	b91b      	cbnz	r3, 8000bca <HAL_PCD_Init+0x1c>
 8000bc2:	f880 23bc 	strb.w	r2, [r0, #956]	; 0x3bc
 8000bc6:	f002 fb17 	bl	80031f8 <HAL_PCD_MspInit>
 8000bca:	2303      	movs	r3, #3
 8000bcc:	f884 33bd 	strb.w	r3, [r4, #957]	; 0x3bd
 8000bd0:	6beb      	ldr	r3, [r5, #60]	; 0x3c
 8000bd2:	4625      	mov	r5, r4
 8000bd4:	f413 7380 	ands.w	r3, r3, #256	; 0x100
 8000bd8:	f855 0b10 	ldr.w	r0, [r5], #16
 8000bdc:	bf08      	it	eq
 8000bde:	6123      	streq	r3, [r4, #16]
 8000be0:	f001 f936 	bl	8001e50 <USB_DisableGlobalInt>
 8000be4:	cd0f      	ldmia	r5!, {r0, r1, r2, r3}
 8000be6:	466e      	mov	r6, sp
 8000be8:	c60f      	stmia	r6!, {r0, r1, r2, r3}
 8000bea:	cd0f      	ldmia	r5!, {r0, r1, r2, r3}
 8000bec:	c60f      	stmia	r6!, {r0, r1, r2, r3}
 8000bee:	e895 0003 	ldmia.w	r5, {r0, r1}
 8000bf2:	e886 0003 	stmia.w	r6, {r0, r1}
 8000bf6:	4625      	mov	r5, r4
 8000bf8:	1d27      	adds	r7, r4, #4
 8000bfa:	e897 000e 	ldmia.w	r7, {r1, r2, r3}
 8000bfe:	f855 0b10 	ldr.w	r0, [r5], #16
 8000c02:	f001 f86b 	bl	8001cdc <USB_CoreInit>
 8000c06:	4606      	mov	r6, r0
 8000c08:	b120      	cbz	r0, 8000c14 <HAL_PCD_Init+0x66>
 8000c0a:	2302      	movs	r3, #2
 8000c0c:	f884 33bd 	strb.w	r3, [r4, #957]	; 0x3bd
 8000c10:	2501      	movs	r5, #1
 8000c12:	e050      	b.n	8000cb6 <HAL_PCD_Init+0x108>
 8000c14:	4601      	mov	r1, r0
 8000c16:	6820      	ldr	r0, [r4, #0]
 8000c18:	f001 f920 	bl	8001e5c <USB_SetCurrentMode>
 8000c1c:	4630      	mov	r0, r6
 8000c1e:	f8d4 c004 	ldr.w	ip, [r4, #4]
 8000c22:	261c      	movs	r6, #28
 8000c24:	f04f 0e01 	mov.w	lr, #1
 8000c28:	4601      	mov	r1, r0
 8000c2a:	b2c2      	uxtb	r2, r0
 8000c2c:	4594      	cmp	ip, r2
 8000c2e:	f100 0001 	add.w	r0, r0, #1
 8000c32:	d81c      	bhi.n	8000c6e <HAL_PCD_Init+0xc0>
 8000c34:	2300      	movs	r3, #0
 8000c36:	261c      	movs	r6, #28
 8000c38:	4619      	mov	r1, r3
 8000c3a:	b2d8      	uxtb	r0, r3
 8000c3c:	4584      	cmp	ip, r0
 8000c3e:	f103 0301 	add.w	r3, r3, #1
 8000c42:	d822      	bhi.n	8000c8a <HAL_PCD_Init+0xdc>
 8000c44:	cd0f      	ldmia	r5!, {r0, r1, r2, r3}
 8000c46:	466e      	mov	r6, sp
 8000c48:	c60f      	stmia	r6!, {r0, r1, r2, r3}
 8000c4a:	cd0f      	ldmia	r5!, {r0, r1, r2, r3}
 8000c4c:	c60f      	stmia	r6!, {r0, r1, r2, r3}
 8000c4e:	e895 0003 	ldmia.w	r5, {r0, r1}
 8000c52:	e886 0003 	stmia.w	r6, {r0, r1}
 8000c56:	e897 000e 	ldmia.w	r7, {r1, r2, r3}
 8000c5a:	6820      	ldr	r0, [r4, #0]
 8000c5c:	f001 f940 	bl	8001ee0 <USB_DevInit>
 8000c60:	2301      	movs	r3, #1
 8000c62:	4605      	mov	r5, r0
 8000c64:	b300      	cbz	r0, 8000ca8 <HAL_PCD_Init+0xfa>
 8000c66:	2202      	movs	r2, #2
 8000c68:	f884 23bd 	strb.w	r2, [r4, #957]	; 0x3bd
 8000c6c:	e7d0      	b.n	8000c10 <HAL_PCD_Init+0x62>
 8000c6e:	fb06 4302 	mla	r3, r6, r2, r4
 8000c72:	e9c3 1111 	strd	r1, r1, [r3, #68]	; 0x44
 8000c76:	f883 e03d 	strb.w	lr, [r3, #61]	; 0x3d
 8000c7a:	f883 203c 	strb.w	r2, [r3, #60]	; 0x3c
 8000c7e:	f8a3 2042 	strh.w	r2, [r3, #66]	; 0x42
 8000c82:	f883 103f 	strb.w	r1, [r3, #63]	; 0x3f
 8000c86:	6519      	str	r1, [r3, #80]	; 0x50
 8000c88:	e7cf      	b.n	8000c2a <HAL_PCD_Init+0x7c>
 8000c8a:	fb06 4200 	mla	r2, r6, r0, r4
 8000c8e:	f882 11fd 	strb.w	r1, [r2, #509]	; 0x1fd
 8000c92:	f882 01fc 	strb.w	r0, [r2, #508]	; 0x1fc
 8000c96:	f882 11ff 	strb.w	r1, [r2, #511]	; 0x1ff
 8000c9a:	f8c2 1204 	str.w	r1, [r2, #516]	; 0x204
 8000c9e:	f8c2 1208 	str.w	r1, [r2, #520]	; 0x208
 8000ca2:	f8c2 1210 	str.w	r1, [r2, #528]	; 0x210
 8000ca6:	e7c8      	b.n	8000c3a <HAL_PCD_Init+0x8c>
 8000ca8:	f884 0038 	strb.w	r0, [r4, #56]	; 0x38
 8000cac:	f884 33bd 	strb.w	r3, [r4, #957]	; 0x3bd
 8000cb0:	6820      	ldr	r0, [r4, #0]
 8000cb2:	f001 fc31 	bl	8002518 <USB_DevDisconnect>
 8000cb6:	4628      	mov	r0, r5
 8000cb8:	b00b      	add	sp, #44	; 0x2c
 8000cba:	bdf0      	pop	{r4, r5, r6, r7, pc}

08000cbc <HAL_PCD_Start>:
 8000cbc:	f890 33bc 	ldrb.w	r3, [r0, #956]	; 0x3bc
 8000cc0:	2b01      	cmp	r3, #1
 8000cc2:	b510      	push	{r4, lr}
 8000cc4:	4604      	mov	r4, r0
 8000cc6:	d016      	beq.n	8000cf6 <HAL_PCD_Start+0x3a>
 8000cc8:	2301      	movs	r3, #1
 8000cca:	6800      	ldr	r0, [r0, #0]
 8000ccc:	f884 33bc 	strb.w	r3, [r4, #956]	; 0x3bc
 8000cd0:	6aa3      	ldr	r3, [r4, #40]	; 0x28
 8000cd2:	2b01      	cmp	r3, #1
 8000cd4:	d106      	bne.n	8000ce4 <HAL_PCD_Start+0x28>
 8000cd6:	69a3      	ldr	r3, [r4, #24]
 8000cd8:	2b01      	cmp	r3, #1
 8000cda:	bf1e      	ittt	ne
 8000cdc:	6b83      	ldrne	r3, [r0, #56]	; 0x38
 8000cde:	f443 3380 	orrne.w	r3, r3, #65536	; 0x10000
 8000ce2:	6383      	strne	r3, [r0, #56]	; 0x38
 8000ce4:	f001 fc0c 	bl	8002500 <USB_DevConnect>
 8000ce8:	6820      	ldr	r0, [r4, #0]
 8000cea:	f001 f8ab 	bl	8001e44 <USB_EnableGlobalInt>
 8000cee:	2000      	movs	r0, #0
 8000cf0:	f884 03bc 	strb.w	r0, [r4, #956]	; 0x3bc
 8000cf4:	bd10      	pop	{r4, pc}
 8000cf6:	2002      	movs	r0, #2
 8000cf8:	e7fc      	b.n	8000cf4 <HAL_PCD_Start+0x38>
	...

08000cfc <HAL_PCD_IRQHandler>:
 8000cfc:	e92d 4ff0 	stmdb	sp!, {r4, r5, r6, r7, r8, r9, sl, fp, lr}
 8000d00:	f8d0 b000 	ldr.w	fp, [r0]
 8000d04:	b087      	sub	sp, #28
 8000d06:	4604      	mov	r4, r0
 8000d08:	4658      	mov	r0, fp
 8000d0a:	f001 fc40 	bl	800258e <USB_GetMode>
 8000d0e:	9002      	str	r0, [sp, #8]
 8000d10:	2800      	cmp	r0, #0
 8000d12:	f040 8122 	bne.w	8000f5a <HAL_PCD_IRQHandler+0x25e>
 8000d16:	6820      	ldr	r0, [r4, #0]
 8000d18:	f001 fc0a 	bl	8002530 <USB_ReadInterrupts>
 8000d1c:	2800      	cmp	r0, #0
 8000d1e:	f000 811c 	beq.w	8000f5a <HAL_PCD_IRQHandler+0x25e>
 8000d22:	6820      	ldr	r0, [r4, #0]
 8000d24:	f001 fc04 	bl	8002530 <USB_ReadInterrupts>
 8000d28:	0786      	lsls	r6, r0, #30
 8000d2a:	bf48      	it	mi
 8000d2c:	6822      	ldrmi	r2, [r4, #0]
 8000d2e:	6820      	ldr	r0, [r4, #0]
 8000d30:	bf42      	ittt	mi
 8000d32:	6953      	ldrmi	r3, [r2, #20]
 8000d34:	f003 0302 	andmi.w	r3, r3, #2
 8000d38:	6153      	strmi	r3, [r2, #20]
 8000d3a:	f001 fbf9 	bl	8002530 <USB_ReadInterrupts>
 8000d3e:	0305      	lsls	r5, r0, #12
 8000d40:	f100 810e 	bmi.w	8000f60 <HAL_PCD_IRQHandler+0x264>
 8000d44:	6820      	ldr	r0, [r4, #0]
 8000d46:	f001 fbf3 	bl	8002530 <USB_ReadInterrupts>
 8000d4a:	0340      	lsls	r0, r0, #13
 8000d4c:	d50b      	bpl.n	8000d66 <HAL_PCD_IRQHandler+0x6a>
 8000d4e:	6820      	ldr	r0, [r4, #0]
 8000d50:	f001 fbfa 	bl	8002548 <USB_ReadDevAllInEpInterrupt>
 8000d54:	4625      	mov	r5, r4
 8000d56:	4681      	mov	r9, r0
 8000d58:	2600      	movs	r6, #0
 8000d5a:	f50b 6810 	add.w	r8, fp, #2304	; 0x900
 8000d5e:	f1b9 0f00 	cmp.w	r9, #0
 8000d62:	f040 81c6 	bne.w	80010f2 <HAL_PCD_IRQHandler+0x3f6>
 8000d66:	6820      	ldr	r0, [r4, #0]
 8000d68:	f001 fbe2 	bl	8002530 <USB_ReadInterrupts>
 8000d6c:	2800      	cmp	r0, #0
 8000d6e:	da15      	bge.n	8000d9c <HAL_PCD_IRQHandler+0xa0>
 8000d70:	f8db 3804 	ldr.w	r3, [fp, #2052]	; 0x804
 8000d74:	f023 0301 	bic.w	r3, r3, #1
 8000d78:	f8cb 3804 	str.w	r3, [fp, #2052]	; 0x804
 8000d7c:	f894 33f4 	ldrb.w	r3, [r4, #1012]	; 0x3f4
 8000d80:	2b01      	cmp	r3, #1
 8000d82:	f040 824c 	bne.w	800121e <HAL_PCD_IRQHandler+0x522>
 8000d86:	2100      	movs	r1, #0
 8000d88:	f884 13f4 	strb.w	r1, [r4, #1012]	; 0x3f4
 8000d8c:	4620      	mov	r0, r4
 8000d8e:	f000 fbd6 	bl	800153e <HAL_PCDEx_LPM_Callback>
 8000d92:	6822      	ldr	r2, [r4, #0]
 8000d94:	6953      	ldr	r3, [r2, #20]
 8000d96:	f003 4300 	and.w	r3, r3, #2147483648	; 0x80000000
 8000d9a:	6153      	str	r3, [r2, #20]
 8000d9c:	6820      	ldr	r0, [r4, #0]
 8000d9e:	f001 fbc7 	bl	8002530 <USB_ReadInterrupts>
 8000da2:	0500      	lsls	r0, r0, #20
 8000da4:	d50b      	bpl.n	8000dbe <HAL_PCD_IRQHandler+0xc2>
 8000da6:	f8db 3808 	ldr.w	r3, [fp, #2056]	; 0x808
 8000daa:	07d9      	lsls	r1, r3, #31
 8000dac:	d502      	bpl.n	8000db4 <HAL_PCD_IRQHandler+0xb8>
 8000dae:	4620      	mov	r0, r4
 8000db0:	f002 fa98 	bl	80032e4 <HAL_PCD_SuspendCallback>
 8000db4:	6822      	ldr	r2, [r4, #0]
 8000db6:	6953      	ldr	r3, [r2, #20]
 8000db8:	f403 6300 	and.w	r3, r3, #2048	; 0x800
 8000dbc:	6153      	str	r3, [r2, #20]
 8000dbe:	6820      	ldr	r0, [r4, #0]
 8000dc0:	f001 fbb6 	bl	8002530 <USB_ReadInterrupts>
 8000dc4:	04c2      	lsls	r2, r0, #19
 8000dc6:	d535      	bpl.n	8000e34 <HAL_PCD_IRQHandler+0x138>
 8000dc8:	f50b 6500 	add.w	r5, fp, #2048	; 0x800
 8000dcc:	686b      	ldr	r3, [r5, #4]
 8000dce:	6820      	ldr	r0, [r4, #0]
 8000dd0:	f023 0301 	bic.w	r3, r3, #1
 8000dd4:	606b      	str	r3, [r5, #4]
 8000dd6:	2110      	movs	r1, #16
 8000dd8:	f001 f858 	bl	8001e8c <USB_FlushTxFifo>
 8000ddc:	6860      	ldr	r0, [r4, #4]
 8000dde:	f50b 6310 	add.w	r3, fp, #2304	; 0x900
 8000de2:	f64f 317f 	movw	r1, #64383	; 0xfb7f
 8000de6:	9a02      	ldr	r2, [sp, #8]
 8000de8:	4290      	cmp	r0, r2
 8000dea:	f040 821c 	bne.w	8001226 <HAL_PCD_IRQHandler+0x52a>
 8000dee:	69eb      	ldr	r3, [r5, #28]
 8000df0:	f043 1301 	orr.w	r3, r3, #65537	; 0x10001
 8000df4:	61eb      	str	r3, [r5, #28]
 8000df6:	6b23      	ldr	r3, [r4, #48]	; 0x30
 8000df8:	2b00      	cmp	r3, #0
 8000dfa:	f000 8226 	beq.w	800124a <HAL_PCD_IRQHandler+0x54e>
 8000dfe:	f8d5 3084 	ldr.w	r3, [r5, #132]	; 0x84
 8000e02:	f043 030b 	orr.w	r3, r3, #11
 8000e06:	f8c5 3084 	str.w	r3, [r5, #132]	; 0x84
 8000e0a:	6c6b      	ldr	r3, [r5, #68]	; 0x44
 8000e0c:	f043 030b 	orr.w	r3, r3, #11
 8000e10:	646b      	str	r3, [r5, #68]	; 0x44
 8000e12:	f8db 3800 	ldr.w	r3, [fp, #2048]	; 0x800
 8000e16:	7c21      	ldrb	r1, [r4, #16]
 8000e18:	6820      	ldr	r0, [r4, #0]
 8000e1a:	f423 63fe 	bic.w	r3, r3, #2032	; 0x7f0
 8000e1e:	f8cb 3800 	str.w	r3, [fp, #2048]	; 0x800
 8000e22:	f504 7271 	add.w	r2, r4, #964	; 0x3c4
 8000e26:	f001 fbd1 	bl	80025cc <USB_EP0_OutStart>
 8000e2a:	6822      	ldr	r2, [r4, #0]
 8000e2c:	6953      	ldr	r3, [r2, #20]
 8000e2e:	f403 5380 	and.w	r3, r3, #4096	; 0x1000
 8000e32:	6153      	str	r3, [r2, #20]
 8000e34:	6820      	ldr	r0, [r4, #0]
 8000e36:	f001 fb7b 	bl	8002530 <USB_ReadInterrupts>
 8000e3a:	0483      	lsls	r3, r0, #18
 8000e3c:	d516      	bpl.n	8000e6c <HAL_PCD_IRQHandler+0x170>
 8000e3e:	6820      	ldr	r0, [r4, #0]
 8000e40:	f001 fba9 	bl	8002596 <USB_ActivateSetup>
 8000e44:	6820      	ldr	r0, [r4, #0]
 8000e46:	f001 f90f 	bl	8002068 <USB_GetDevSpeed>
 8000e4a:	60e0      	str	r0, [r4, #12]
 8000e4c:	6825      	ldr	r5, [r4, #0]
 8000e4e:	f000 fde5 	bl	8001a1c <HAL_RCC_GetHCLKFreq>
 8000e52:	7b22      	ldrb	r2, [r4, #12]
 8000e54:	4601      	mov	r1, r0
 8000e56:	4628      	mov	r0, r5
 8000e58:	f000 ff80 	bl	8001d5c <USB_SetTurnaroundTime>
 8000e5c:	4620      	mov	r0, r4
 8000e5e:	f002 fa2e 	bl	80032be <HAL_PCD_ResetCallback>
 8000e62:	6822      	ldr	r2, [r4, #0]
 8000e64:	6953      	ldr	r3, [r2, #20]
 8000e66:	f403 5300 	and.w	r3, r3, #8192	; 0x2000
 8000e6a:	6153      	str	r3, [r2, #20]
 8000e6c:	6820      	ldr	r0, [r4, #0]
 8000e6e:	f001 fb5f 	bl	8002530 <USB_ReadInterrupts>
 8000e72:	06c7      	lsls	r7, r0, #27
 8000e74:	d52b      	bpl.n	8000ece <HAL_PCD_IRQHandler+0x1d2>
 8000e76:	6822      	ldr	r2, [r4, #0]
 8000e78:	6993      	ldr	r3, [r2, #24]
 8000e7a:	f023 0310 	bic.w	r3, r3, #16
 8000e7e:	6193      	str	r3, [r2, #24]
 8000e80:	f8db 5020 	ldr.w	r5, [fp, #32]
 8000e84:	f3c5 4343 	ubfx	r3, r5, #17, #4
 8000e88:	2b02      	cmp	r3, #2
 8000e8a:	f005 060f 	and.w	r6, r5, #15
 8000e8e:	f040 81e7 	bne.w	8001260 <HAL_PCD_IRQHandler+0x564>
 8000e92:	f647 73f0 	movw	r3, #32752	; 0x7ff0
 8000e96:	421d      	tst	r5, r3
 8000e98:	d014      	beq.n	8000ec4 <HAL_PCD_IRQHandler+0x1c8>
 8000e9a:	231c      	movs	r3, #28
 8000e9c:	fb03 4606 	mla	r6, r3, r6, r4
 8000ea0:	f3c5 150a 	ubfx	r5, r5, #4, #11
 8000ea4:	462a      	mov	r2, r5
 8000ea6:	f8d6 1208 	ldr.w	r1, [r6, #520]	; 0x208
 8000eaa:	4658      	mov	r0, fp
 8000eac:	f001 fab6 	bl	800241c <USB_ReadPacket>
 8000eb0:	f8d6 3208 	ldr.w	r3, [r6, #520]	; 0x208
 8000eb4:	442b      	add	r3, r5
 8000eb6:	f8c6 3208 	str.w	r3, [r6, #520]	; 0x208
 8000eba:	f8d6 3214 	ldr.w	r3, [r6, #532]	; 0x214
 8000ebe:	441d      	add	r5, r3
 8000ec0:	f8c6 5214 	str.w	r5, [r6, #532]	; 0x214
 8000ec4:	6822      	ldr	r2, [r4, #0]
 8000ec6:	6993      	ldr	r3, [r2, #24]
 8000ec8:	f043 0310 	orr.w	r3, r3, #16
 8000ecc:	6193      	str	r3, [r2, #24]
 8000ece:	6820      	ldr	r0, [r4, #0]
 8000ed0:	f001 fb2e 	bl	8002530 <USB_ReadInterrupts>
 8000ed4:	0706      	lsls	r6, r0, #28
 8000ed6:	d507      	bpl.n	8000ee8 <HAL_PCD_IRQHandler+0x1ec>
 8000ed8:	4620      	mov	r0, r4
 8000eda:	f002 f9ec 	bl	80032b6 <HAL_PCD_SOFCallback>
 8000ede:	6822      	ldr	r2, [r4, #0]
 8000ee0:	6953      	ldr	r3, [r2, #20]
 8000ee2:	f003 0308 	and.w	r3, r3, #8
 8000ee6:	6153      	str	r3, [r2, #20]
 8000ee8:	6820      	ldr	r0, [r4, #0]
 8000eea:	f001 fb21 	bl	8002530 <USB_ReadInterrupts>
 8000eee:	02c5      	lsls	r5, r0, #11
 8000ef0:	d508      	bpl.n	8000f04 <HAL_PCD_IRQHandler+0x208>
 8000ef2:	2100      	movs	r1, #0
 8000ef4:	4620      	mov	r0, r4
 8000ef6:	f002 fa15 	bl	8003324 <HAL_PCD_ISOINIncompleteCallback>
 8000efa:	6822      	ldr	r2, [r4, #0]
 8000efc:	6953      	ldr	r3, [r2, #20]
 8000efe:	f403 1380 	and.w	r3, r3, #1048576	; 0x100000
 8000f02:	6153      	str	r3, [r2, #20]
 8000f04:	6820      	ldr	r0, [r4, #0]
 8000f06:	f001 fb13 	bl	8002530 <USB_ReadInterrupts>
 8000f0a:	0280      	lsls	r0, r0, #10
 8000f0c:	d508      	bpl.n	8000f20 <HAL_PCD_IRQHandler+0x224>
 8000f0e:	2100      	movs	r1, #0
 8000f10:	4620      	mov	r0, r4
 8000f12:	f002 fa03 	bl	800331c <HAL_PCD_ISOOUTIncompleteCallback>
 8000f16:	6822      	ldr	r2, [r4, #0]
 8000f18:	6953      	ldr	r3, [r2, #20]
 8000f1a:	f403 1300 	and.w	r3, r3, #2097152	; 0x200000
 8000f1e:	6153      	str	r3, [r2, #20]
 8000f20:	6820      	ldr	r0, [r4, #0]
 8000f22:	f001 fb05 	bl	8002530 <USB_ReadInterrupts>
 8000f26:	0041      	lsls	r1, r0, #1
 8000f28:	d507      	bpl.n	8000f3a <HAL_PCD_IRQHandler+0x23e>
 8000f2a:	4620      	mov	r0, r4
 8000f2c:	f002 f9fe 	bl	800332c <HAL_PCD_ConnectCallback>
 8000f30:	6822      	ldr	r2, [r4, #0]
 8000f32:	6953      	ldr	r3, [r2, #20]
 8000f34:	f003 4380 	and.w	r3, r3, #1073741824	; 0x40000000
 8000f38:	6153      	str	r3, [r2, #20]
 8000f3a:	6820      	ldr	r0, [r4, #0]
 8000f3c:	f001 faf8 	bl	8002530 <USB_ReadInterrupts>
 8000f40:	0742      	lsls	r2, r0, #29
 8000f42:	d50a      	bpl.n	8000f5a <HAL_PCD_IRQHandler+0x25e>
 8000f44:	6823      	ldr	r3, [r4, #0]
 8000f46:	685d      	ldr	r5, [r3, #4]
 8000f48:	076b      	lsls	r3, r5, #29
 8000f4a:	d502      	bpl.n	8000f52 <HAL_PCD_IRQHandler+0x256>
 8000f4c:	4620      	mov	r0, r4
 8000f4e:	f002 f9f1 	bl	8003334 <HAL_PCD_DisconnectCallback>
 8000f52:	6822      	ldr	r2, [r4, #0]
 8000f54:	6853      	ldr	r3, [r2, #4]
 8000f56:	432b      	orrs	r3, r5
 8000f58:	6053      	str	r3, [r2, #4]
 8000f5a:	b007      	add	sp, #28
 8000f5c:	e8bd 8ff0 	ldmia.w	sp!, {r4, r5, r6, r7, r8, r9, sl, fp, pc}
 8000f60:	6820      	ldr	r0, [r4, #0]
 8000f62:	f8df 9320 	ldr.w	r9, [pc, #800]	; 8001284 <HAL_PCD_IRQHandler+0x588>
 8000f66:	f001 fae7 	bl	8002538 <USB_ReadDevAllOutEpInterrupt>
 8000f6a:	2500      	movs	r5, #0
 8000f6c:	4680      	mov	r8, r0
 8000f6e:	f50b 6630 	add.w	r6, fp, #2816	; 0xb00
 8000f72:	f1b8 0f00 	cmp.w	r8, #0
 8000f76:	f43f aee5 	beq.w	8000d44 <HAL_PCD_IRQHandler+0x48>
 8000f7a:	f018 0f01 	tst.w	r8, #1
 8000f7e:	f000 80b4 	beq.w	80010ea <HAL_PCD_IRQHandler+0x3ee>
 8000f82:	b2eb      	uxtb	r3, r5
 8000f84:	4619      	mov	r1, r3
 8000f86:	6820      	ldr	r0, [r4, #0]
 8000f88:	9303      	str	r3, [sp, #12]
 8000f8a:	f001 fae5 	bl	8002558 <USB_ReadDevOutEPInterrupt>
 8000f8e:	f010 0f01 	tst.w	r0, #1
 8000f92:	4607      	mov	r7, r0
 8000f94:	9b03      	ldr	r3, [sp, #12]
 8000f96:	d053      	beq.n	8001040 <HAL_PCD_IRQHandler+0x344>
 8000f98:	ea4f 1a45 	mov.w	sl, r5, lsl #5
 8000f9c:	eb06 020a 	add.w	r2, r6, sl
 8000fa0:	2101      	movs	r1, #1
 8000fa2:	6091      	str	r1, [r2, #8]
 8000fa4:	6822      	ldr	r2, [r4, #0]
 8000fa6:	6921      	ldr	r1, [r4, #16]
 8000fa8:	6c10      	ldr	r0, [r2, #64]	; 0x40
 8000faa:	f502 6230 	add.w	r2, r2, #2816	; 0xb00
 8000fae:	4492      	add	sl, r2
 8000fb0:	2901      	cmp	r1, #1
 8000fb2:	f8da 2008 	ldr.w	r2, [sl, #8]
 8000fb6:	d158      	bne.n	800106a <HAL_PCD_IRQHandler+0x36e>
 8000fb8:	0711      	lsls	r1, r2, #28
 8000fba:	d514      	bpl.n	8000fe6 <HAL_PCD_IRQHandler+0x2ea>
 8000fbc:	4548      	cmp	r0, r9
 8000fbe:	d905      	bls.n	8000fcc <HAL_PCD_IRQHandler+0x2d0>
 8000fc0:	0410      	lsls	r0, r2, #16
 8000fc2:	bf44      	itt	mi
 8000fc4:	f44f 4300 	movmi.w	r3, #32768	; 0x8000
 8000fc8:	f8ca 3008 	strmi.w	r3, [sl, #8]
 8000fcc:	4620      	mov	r0, r4
 8000fce:	f002 f95b 	bl	8003288 <HAL_PCD_SetupStageCallback>
 8000fd2:	f504 7271 	add.w	r2, r4, #964	; 0x3c4
 8000fd6:	2101      	movs	r1, #1
 8000fd8:	6820      	ldr	r0, [r4, #0]
 8000fda:	f001 faf7 	bl	80025cc <USB_EP0_OutStart>
 8000fde:	2308      	movs	r3, #8
 8000fe0:	f8ca 3008 	str.w	r3, [sl, #8]
 8000fe4:	e02c      	b.n	8001040 <HAL_PCD_IRQHandler+0x344>
 8000fe6:	0691      	lsls	r1, r2, #26
 8000fe8:	d501      	bpl.n	8000fee <HAL_PCD_IRQHandler+0x2f2>
 8000fea:	2320      	movs	r3, #32
 8000fec:	e7f8      	b.n	8000fe0 <HAL_PCD_IRQHandler+0x2e4>
 8000fee:	f012 0f28 	tst.w	r2, #40	; 0x28
 8000ff2:	d125      	bne.n	8001040 <HAL_PCD_IRQHandler+0x344>
 8000ff4:	4548      	cmp	r0, r9
 8000ff6:	d904      	bls.n	8001002 <HAL_PCD_IRQHandler+0x306>
 8000ff8:	0410      	lsls	r0, r2, #16
 8000ffa:	d502      	bpl.n	8001002 <HAL_PCD_IRQHandler+0x306>
 8000ffc:	f44f 4300 	mov.w	r3, #32768	; 0x8000
 8001000:	e7ee      	b.n	8000fe0 <HAL_PCD_IRQHandler+0x2e4>
 8001002:	221c      	movs	r2, #28
 8001004:	fb02 4205 	mla	r2, r2, r5, r4
 8001008:	f8da 1010 	ldr.w	r1, [sl, #16]
 800100c:	f8d2 0204 	ldr.w	r0, [r2, #516]	; 0x204
 8001010:	f3c1 0112 	ubfx	r1, r1, #0, #19
 8001014:	1a41      	subs	r1, r0, r1
 8001016:	f8c2 1214 	str.w	r1, [r2, #532]	; 0x214
 800101a:	f8d2 1208 	ldr.w	r1, [r2, #520]	; 0x208
 800101e:	4408      	add	r0, r1
 8001020:	f8c2 0208 	str.w	r0, [r2, #520]	; 0x208
 8001024:	4619      	mov	r1, r3
 8001026:	4620      	mov	r0, r4
 8001028:	f002 f934 	bl	8003294 <HAL_PCD_DataOutStageCallback>
 800102c:	b945      	cbnz	r5, 8001040 <HAL_PCD_IRQHandler+0x344>
 800102e:	f8d4 3210 	ldr.w	r3, [r4, #528]	; 0x210
 8001032:	b92b      	cbnz	r3, 8001040 <HAL_PCD_IRQHandler+0x344>
 8001034:	f504 7271 	add.w	r2, r4, #964	; 0x3c4
 8001038:	2101      	movs	r1, #1
 800103a:	6820      	ldr	r0, [r4, #0]
 800103c:	f001 fac6 	bl	80025cc <USB_EP0_OutStart>
 8001040:	0738      	lsls	r0, r7, #28
 8001042:	d537      	bpl.n	80010b4 <HAL_PCD_IRQHandler+0x3b8>
 8001044:	6823      	ldr	r3, [r4, #0]
 8001046:	6920      	ldr	r0, [r4, #16]
 8001048:	6c1a      	ldr	r2, [r3, #64]	; 0x40
 800104a:	ea4f 1a45 	mov.w	sl, r5, lsl #5
 800104e:	f503 6330 	add.w	r3, r3, #2816	; 0xb00
 8001052:	4453      	add	r3, sl
 8001054:	2801      	cmp	r0, #1
 8001056:	6899      	ldr	r1, [r3, #8]
 8001058:	d116      	bne.n	8001088 <HAL_PCD_IRQHandler+0x38c>
 800105a:	454a      	cmp	r2, r9
 800105c:	d917      	bls.n	800108e <HAL_PCD_IRQHandler+0x392>
 800105e:	0409      	lsls	r1, r1, #16
 8001060:	bf44      	itt	mi
 8001062:	f44f 4100 	movmi.w	r1, #32768	; 0x8000
 8001066:	6099      	strmi	r1, [r3, #8]
 8001068:	e011      	b.n	800108e <HAL_PCD_IRQHandler+0x392>
 800106a:	4985      	ldr	r1, [pc, #532]	; (8001280 <HAL_PCD_IRQHandler+0x584>)
 800106c:	4288      	cmp	r0, r1
 800106e:	d106      	bne.n	800107e <HAL_PCD_IRQHandler+0x382>
 8001070:	0411      	lsls	r1, r2, #16
 8001072:	d4c3      	bmi.n	8000ffc <HAL_PCD_IRQHandler+0x300>
 8001074:	0692      	lsls	r2, r2, #26
 8001076:	bf44      	itt	mi
 8001078:	2220      	movmi	r2, #32
 800107a:	f8ca 2008 	strmi.w	r2, [sl, #8]
 800107e:	4619      	mov	r1, r3
 8001080:	4620      	mov	r0, r4
 8001082:	f002 f907 	bl	8003294 <HAL_PCD_DataOutStageCallback>
 8001086:	e7db      	b.n	8001040 <HAL_PCD_IRQHandler+0x344>
 8001088:	487d      	ldr	r0, [pc, #500]	; (8001280 <HAL_PCD_IRQHandler+0x584>)
 800108a:	4282      	cmp	r2, r0
 800108c:	d0e7      	beq.n	800105e <HAL_PCD_IRQHandler+0x362>
 800108e:	4620      	mov	r0, r4
 8001090:	9203      	str	r2, [sp, #12]
 8001092:	f002 f8f9 	bl	8003288 <HAL_PCD_SetupStageCallback>
 8001096:	9a03      	ldr	r2, [sp, #12]
 8001098:	454a      	cmp	r2, r9
 800109a:	d907      	bls.n	80010ac <HAL_PCD_IRQHandler+0x3b0>
 800109c:	6921      	ldr	r1, [r4, #16]
 800109e:	2901      	cmp	r1, #1
 80010a0:	d104      	bne.n	80010ac <HAL_PCD_IRQHandler+0x3b0>
 80010a2:	f504 7271 	add.w	r2, r4, #964	; 0x3c4
 80010a6:	6820      	ldr	r0, [r4, #0]
 80010a8:	f001 fa90 	bl	80025cc <USB_EP0_OutStart>
 80010ac:	44b2      	add	sl, r6
 80010ae:	2308      	movs	r3, #8
 80010b0:	f8ca 3008 	str.w	r3, [sl, #8]
 80010b4:	06f8      	lsls	r0, r7, #27
 80010b6:	bf42      	ittt	mi
 80010b8:	eb06 1345 	addmi.w	r3, r6, r5, lsl #5
 80010bc:	2210      	movmi	r2, #16
 80010be:	609a      	strmi	r2, [r3, #8]
 80010c0:	06b9      	lsls	r1, r7, #26
 80010c2:	d50b      	bpl.n	80010dc <HAL_PCD_IRQHandler+0x3e0>
 80010c4:	6921      	ldr	r1, [r4, #16]
 80010c6:	2901      	cmp	r1, #1
 80010c8:	d104      	bne.n	80010d4 <HAL_PCD_IRQHandler+0x3d8>
 80010ca:	f504 7271 	add.w	r2, r4, #964	; 0x3c4
 80010ce:	6820      	ldr	r0, [r4, #0]
 80010d0:	f001 fa7c 	bl	80025cc <USB_EP0_OutStart>
 80010d4:	eb06 1345 	add.w	r3, r6, r5, lsl #5
 80010d8:	2220      	movs	r2, #32
 80010da:	609a      	str	r2, [r3, #8]
 80010dc:	04ba      	lsls	r2, r7, #18
 80010de:	bf42      	ittt	mi
 80010e0:	eb06 1345 	addmi.w	r3, r6, r5, lsl #5
 80010e4:	f44f 5200 	movmi.w	r2, #8192	; 0x2000
 80010e8:	609a      	strmi	r2, [r3, #8]
 80010ea:	3501      	adds	r5, #1
 80010ec:	ea4f 0858 	mov.w	r8, r8, lsr #1
 80010f0:	e73f      	b.n	8000f72 <HAL_PCD_IRQHandler+0x276>
 80010f2:	f019 0f01 	tst.w	r9, #1
 80010f6:	d072      	beq.n	80011de <HAL_PCD_IRQHandler+0x4e2>
 80010f8:	fa5f fa86 	uxtb.w	sl, r6
 80010fc:	4651      	mov	r1, sl
 80010fe:	6820      	ldr	r0, [r4, #0]
 8001100:	f001 fa33 	bl	800256a <USB_ReadDevInEPInterrupt>
 8001104:	07c3      	lsls	r3, r0, #31
 8001106:	4607      	mov	r7, r0
 8001108:	d524      	bpl.n	8001154 <HAL_PCD_IRQHandler+0x458>
 800110a:	f8db 3834 	ldr.w	r3, [fp, #2100]	; 0x834
 800110e:	2001      	movs	r0, #1
 8001110:	f006 020f 	and.w	r2, r6, #15
 8001114:	fa00 f202 	lsl.w	r2, r0, r2
 8001118:	ea23 0302 	bic.w	r3, r3, r2
 800111c:	f8cb 3834 	str.w	r3, [fp, #2100]	; 0x834
 8001120:	eb08 1346 	add.w	r3, r8, r6, lsl #5
 8001124:	4602      	mov	r2, r0
 8001126:	6098      	str	r0, [r3, #8]
 8001128:	6923      	ldr	r3, [r4, #16]
 800112a:	4283      	cmp	r3, r0
 800112c:	bf02      	ittt	eq
 800112e:	e9d5 2311 	ldrdeq	r2, r3, [r5, #68]	; 0x44
 8001132:	189b      	addeq	r3, r3, r2
 8001134:	64ab      	streq	r3, [r5, #72]	; 0x48
 8001136:	4651      	mov	r1, sl
 8001138:	4620      	mov	r0, r4
 800113a:	f002 f8b4 	bl	80032a6 <HAL_PCD_DataInStageCallback>
 800113e:	6921      	ldr	r1, [r4, #16]
 8001140:	2901      	cmp	r1, #1
 8001142:	d107      	bne.n	8001154 <HAL_PCD_IRQHandler+0x458>
 8001144:	b936      	cbnz	r6, 8001154 <HAL_PCD_IRQHandler+0x458>
 8001146:	6d23      	ldr	r3, [r4, #80]	; 0x50
 8001148:	b923      	cbnz	r3, 8001154 <HAL_PCD_IRQHandler+0x458>
 800114a:	f504 7271 	add.w	r2, r4, #964	; 0x3c4
 800114e:	6820      	ldr	r0, [r4, #0]
 8001150:	f001 fa3c 	bl	80025cc <USB_EP0_OutStart>
 8001154:	0738      	lsls	r0, r7, #28
 8001156:	bf42      	ittt	mi
 8001158:	eb08 1346 	addmi.w	r3, r8, r6, lsl #5
 800115c:	2208      	movmi	r2, #8
 800115e:	609a      	strmi	r2, [r3, #8]
 8001160:	06f9      	lsls	r1, r7, #27
 8001162:	bf42      	ittt	mi
 8001164:	eb08 1346 	addmi.w	r3, r8, r6, lsl #5
 8001168:	2210      	movmi	r2, #16
 800116a:	609a      	strmi	r2, [r3, #8]
 800116c:	067a      	lsls	r2, r7, #25
 800116e:	bf42      	ittt	mi
 8001170:	eb08 1346 	addmi.w	r3, r8, r6, lsl #5
 8001174:	2240      	movmi	r2, #64	; 0x40
 8001176:	609a      	strmi	r2, [r3, #8]
 8001178:	07bb      	lsls	r3, r7, #30
 800117a:	bf42      	ittt	mi
 800117c:	eb08 1346 	addmi.w	r3, r8, r6, lsl #5
 8001180:	2202      	movmi	r2, #2
 8001182:	609a      	strmi	r2, [r3, #8]
 8001184:	063f      	lsls	r7, r7, #24
 8001186:	d52a      	bpl.n	80011de <HAL_PCD_IRQHandler+0x4e2>
 8001188:	e9d5 3214 	ldrd	r3, r2, [r5, #80]	; 0x50
 800118c:	429a      	cmp	r2, r3
 800118e:	d826      	bhi.n	80011de <HAL_PCD_IRQHandler+0x4e2>
 8001190:	1a9b      	subs	r3, r3, r2
 8001192:	6c6a      	ldr	r2, [r5, #68]	; 0x44
 8001194:	6821      	ldr	r1, [r4, #0]
 8001196:	9103      	str	r1, [sp, #12]
 8001198:	4293      	cmp	r3, r2
 800119a:	bf28      	it	cs
 800119c:	4613      	movcs	r3, r2
 800119e:	3303      	adds	r3, #3
 80011a0:	089b      	lsrs	r3, r3, #2
 80011a2:	9304      	str	r3, [sp, #16]
 80011a4:	f501 6310 	add.w	r3, r1, #2304	; 0x900
 80011a8:	eb03 1346 	add.w	r3, r3, r6, lsl #5
 80011ac:	9305      	str	r3, [sp, #20]
 80011ae:	9b05      	ldr	r3, [sp, #20]
 80011b0:	9904      	ldr	r1, [sp, #16]
 80011b2:	699a      	ldr	r2, [r3, #24]
 80011b4:	b292      	uxth	r2, r2
 80011b6:	428a      	cmp	r2, r1
 80011b8:	e9d5 7314 	ldrd	r7, r3, [r5, #80]	; 0x50
 80011bc:	d214      	bcs.n	80011e8 <HAL_PCD_IRQHandler+0x4ec>
 80011be:	429f      	cmp	r7, r3
 80011c0:	d80d      	bhi.n	80011de <HAL_PCD_IRQHandler+0x4e2>
 80011c2:	9b03      	ldr	r3, [sp, #12]
 80011c4:	f006 020f 	and.w	r2, r6, #15
 80011c8:	f503 6a00 	add.w	sl, r3, #2048	; 0x800
 80011cc:	2101      	movs	r1, #1
 80011ce:	f8d3 3834 	ldr.w	r3, [r3, #2100]	; 0x834
 80011d2:	fa01 f202 	lsl.w	r2, r1, r2
 80011d6:	ea23 0302 	bic.w	r3, r3, r2
 80011da:	f8ca 3034 	str.w	r3, [sl, #52]	; 0x34
 80011de:	3601      	adds	r6, #1
 80011e0:	ea4f 0959 	mov.w	r9, r9, lsr #1
 80011e4:	351c      	adds	r5, #28
 80011e6:	e5ba      	b.n	8000d5e <HAL_PCD_IRQHandler+0x62>
 80011e8:	429f      	cmp	r7, r3
 80011ea:	d9ea      	bls.n	80011c2 <HAL_PCD_IRQHandler+0x4c6>
 80011ec:	2f00      	cmp	r7, #0
 80011ee:	d0e8      	beq.n	80011c2 <HAL_PCD_IRQHandler+0x4c6>
 80011f0:	1aff      	subs	r7, r7, r3
 80011f2:	6c6b      	ldr	r3, [r5, #68]	; 0x44
 80011f4:	9803      	ldr	r0, [sp, #12]
 80011f6:	429f      	cmp	r7, r3
 80011f8:	bf28      	it	cs
 80011fa:	461f      	movcs	r7, r3
 80011fc:	1cfb      	adds	r3, r7, #3
 80011fe:	089b      	lsrs	r3, r3, #2
 8001200:	9304      	str	r3, [sp, #16]
 8001202:	7c23      	ldrb	r3, [r4, #16]
 8001204:	9300      	str	r3, [sp, #0]
 8001206:	4652      	mov	r2, sl
 8001208:	b2bb      	uxth	r3, r7
 800120a:	6ca9      	ldr	r1, [r5, #72]	; 0x48
 800120c:	f001 f81a 	bl	8002244 <USB_WritePacket>
 8001210:	6cab      	ldr	r3, [r5, #72]	; 0x48
 8001212:	443b      	add	r3, r7
 8001214:	64ab      	str	r3, [r5, #72]	; 0x48
 8001216:	6d6b      	ldr	r3, [r5, #84]	; 0x54
 8001218:	441f      	add	r7, r3
 800121a:	656f      	str	r7, [r5, #84]	; 0x54
 800121c:	e7c7      	b.n	80011ae <HAL_PCD_IRQHandler+0x4b2>
 800121e:	4620      	mov	r0, r4
 8001220:	f002 f878 	bl	8003314 <HAL_PCD_ResumeCallback>
 8001224:	e5b5      	b.n	8000d92 <HAL_PCD_IRQHandler+0x96>
 8001226:	6099      	str	r1, [r3, #8]
 8001228:	681a      	ldr	r2, [r3, #0]
 800122a:	f422 1200 	bic.w	r2, r2, #2097152	; 0x200000
 800122e:	601a      	str	r2, [r3, #0]
 8001230:	f8c3 1208 	str.w	r1, [r3, #520]	; 0x208
 8001234:	f8d3 2200 	ldr.w	r2, [r3, #512]	; 0x200
 8001238:	f422 1200 	bic.w	r2, r2, #2097152	; 0x200000
 800123c:	f8c3 2200 	str.w	r2, [r3, #512]	; 0x200
 8001240:	9a02      	ldr	r2, [sp, #8]
 8001242:	3201      	adds	r2, #1
 8001244:	9202      	str	r2, [sp, #8]
 8001246:	3320      	adds	r3, #32
 8001248:	e5cd      	b.n	8000de6 <HAL_PCD_IRQHandler+0xea>
 800124a:	696b      	ldr	r3, [r5, #20]
 800124c:	f443 5300 	orr.w	r3, r3, #8192	; 0x2000
 8001250:	f043 032b 	orr.w	r3, r3, #43	; 0x2b
 8001254:	616b      	str	r3, [r5, #20]
 8001256:	692b      	ldr	r3, [r5, #16]
 8001258:	f043 030b 	orr.w	r3, r3, #11
 800125c:	612b      	str	r3, [r5, #16]
 800125e:	e5d8      	b.n	8000e12 <HAL_PCD_IRQHandler+0x116>
 8001260:	2b06      	cmp	r3, #6
 8001262:	f47f ae2f 	bne.w	8000ec4 <HAL_PCD_IRQHandler+0x1c8>
 8001266:	2208      	movs	r2, #8
 8001268:	f504 7171 	add.w	r1, r4, #964	; 0x3c4
 800126c:	4658      	mov	r0, fp
 800126e:	f001 f8d5 	bl	800241c <USB_ReadPacket>
 8001272:	231c      	movs	r3, #28
 8001274:	fb03 4606 	mla	r6, r3, r6, r4
 8001278:	f3c5 150a 	ubfx	r5, r5, #4, #11
 800127c:	e61d      	b.n	8000eba <HAL_PCD_IRQHandler+0x1be>
 800127e:	bf00      	nop
 8001280:	4f54310a 	.word	0x4f54310a
 8001284:	4f54300a 	.word	0x4f54300a

08001288 <HAL_PCD_SetAddress>:
 8001288:	f890 23bc 	ldrb.w	r2, [r0, #956]	; 0x3bc
 800128c:	2a01      	cmp	r2, #1
 800128e:	b510      	push	{r4, lr}
 8001290:	4604      	mov	r4, r0
 8001292:	d00b      	beq.n	80012ac <HAL_PCD_SetAddress+0x24>
 8001294:	2201      	movs	r2, #1
 8001296:	f880 23bc 	strb.w	r2, [r0, #956]	; 0x3bc
 800129a:	f884 1038 	strb.w	r1, [r4, #56]	; 0x38
 800129e:	6800      	ldr	r0, [r0, #0]
 80012a0:	f001 f91e 	bl	80024e0 <USB_SetDevAddress>
 80012a4:	2000      	movs	r0, #0
 80012a6:	f884 03bc 	strb.w	r0, [r4, #956]	; 0x3bc
 80012aa:	bd10      	pop	{r4, pc}
 80012ac:	2002      	movs	r0, #2
 80012ae:	e7fc      	b.n	80012aa <HAL_PCD_SetAddress+0x22>

080012b0 <HAL_PCD_EP_Open>:
 80012b0:	b570      	push	{r4, r5, r6, lr}
 80012b2:	f001 050f 	and.w	r5, r1, #15
 80012b6:	4604      	mov	r4, r0
 80012b8:	f011 0f80 	tst.w	r1, #128	; 0x80
 80012bc:	ebc5 00c5 	rsb	r0, r5, r5, lsl #3
 80012c0:	ea4f 0080 	mov.w	r0, r0, lsl #2
 80012c4:	f04f 061c 	mov.w	r6, #28
 80012c8:	d01f      	beq.n	800130a <HAL_PCD_EP_Open+0x5a>
 80012ca:	fb06 4605 	mla	r6, r6, r5, r4
 80012ce:	f100 013c 	add.w	r1, r0, #60	; 0x3c
 80012d2:	2001      	movs	r0, #1
 80012d4:	4421      	add	r1, r4
 80012d6:	f886 003d 	strb.w	r0, [r6, #61]	; 0x3d
 80012da:	608a      	str	r2, [r1, #8]
 80012dc:	784a      	ldrb	r2, [r1, #1]
 80012de:	700d      	strb	r5, [r1, #0]
 80012e0:	70cb      	strb	r3, [r1, #3]
 80012e2:	b102      	cbz	r2, 80012e6 <HAL_PCD_EP_Open+0x36>
 80012e4:	80cd      	strh	r5, [r1, #6]
 80012e6:	2b02      	cmp	r3, #2
 80012e8:	bf04      	itt	eq
 80012ea:	2300      	moveq	r3, #0
 80012ec:	710b      	strbeq	r3, [r1, #4]
 80012ee:	f894 33bc 	ldrb.w	r3, [r4, #956]	; 0x3bc
 80012f2:	2b01      	cmp	r3, #1
 80012f4:	d012      	beq.n	800131c <HAL_PCD_EP_Open+0x6c>
 80012f6:	2301      	movs	r3, #1
 80012f8:	f884 33bc 	strb.w	r3, [r4, #956]	; 0x3bc
 80012fc:	6820      	ldr	r0, [r4, #0]
 80012fe:	f000 febe 	bl	800207e <USB_ActivateEndpoint>
 8001302:	2000      	movs	r0, #0
 8001304:	f884 03bc 	strb.w	r0, [r4, #956]	; 0x3bc
 8001308:	bd70      	pop	{r4, r5, r6, pc}
 800130a:	fb06 4605 	mla	r6, r6, r5, r4
 800130e:	f500 71fe 	add.w	r1, r0, #508	; 0x1fc
 8001312:	2000      	movs	r0, #0
 8001314:	4421      	add	r1, r4
 8001316:	f886 01fd 	strb.w	r0, [r6, #509]	; 0x1fd
 800131a:	e7de      	b.n	80012da <HAL_PCD_EP_Open+0x2a>
 800131c:	2002      	movs	r0, #2
 800131e:	e7f3      	b.n	8001308 <HAL_PCD_EP_Open+0x58>

08001320 <HAL_PCD_EP_Close>:
 8001320:	b510      	push	{r4, lr}
 8001322:	4604      	mov	r4, r0
 8001324:	f001 000f 	and.w	r0, r1, #15
 8001328:	ebc0 03c0 	rsb	r3, r0, r0, lsl #3
 800132c:	f011 0f80 	tst.w	r1, #128	; 0x80
 8001330:	ea4f 0383 	mov.w	r3, r3, lsl #2
 8001334:	f04f 021c 	mov.w	r2, #28
 8001338:	d016      	beq.n	8001368 <HAL_PCD_EP_Close+0x48>
 800133a:	fb02 4200 	mla	r2, r2, r0, r4
 800133e:	f103 013c 	add.w	r1, r3, #60	; 0x3c
 8001342:	2301      	movs	r3, #1
 8001344:	4421      	add	r1, r4
 8001346:	f882 303d 	strb.w	r3, [r2, #61]	; 0x3d
 800134a:	7008      	strb	r0, [r1, #0]
 800134c:	f894 33bc 	ldrb.w	r3, [r4, #956]	; 0x3bc
 8001350:	2b01      	cmp	r3, #1
 8001352:	d012      	beq.n	800137a <HAL_PCD_EP_Close+0x5a>
 8001354:	2301      	movs	r3, #1
 8001356:	f884 33bc 	strb.w	r3, [r4, #956]	; 0x3bc
 800135a:	6820      	ldr	r0, [r4, #0]
 800135c:	f000 fece 	bl	80020fc <USB_DeactivateEndpoint>
 8001360:	2000      	movs	r0, #0
 8001362:	f884 03bc 	strb.w	r0, [r4, #956]	; 0x3bc
 8001366:	bd10      	pop	{r4, pc}
 8001368:	fb02 4200 	mla	r2, r2, r0, r4
 800136c:	f503 71fe 	add.w	r1, r3, #508	; 0x1fc
 8001370:	2300      	movs	r3, #0
 8001372:	4421      	add	r1, r4
 8001374:	f882 31fd 	strb.w	r3, [r2, #509]	; 0x1fd
 8001378:	e7e7      	b.n	800134a <HAL_PCD_EP_Close+0x2a>
 800137a:	2002      	movs	r0, #2
 800137c:	e7f3      	b.n	8001366 <HAL_PCD_EP_Close+0x46>

0800137e <HAL_PCD_EP_Receive>:
 800137e:	b538      	push	{r3, r4, r5, lr}
 8001380:	f001 050f 	and.w	r5, r1, #15
 8001384:	241c      	movs	r4, #28
 8001386:	fb04 0105 	mla	r1, r4, r5, r0
 800138a:	fb04 0405 	mla	r4, r4, r5, r0
 800138e:	f501 71fe 	add.w	r1, r1, #508	; 0x1fc
 8001392:	f8c4 3210 	str.w	r3, [r4, #528]	; 0x210
 8001396:	2300      	movs	r3, #0
 8001398:	f8c4 2208 	str.w	r2, [r4, #520]	; 0x208
 800139c:	f8c4 3214 	str.w	r3, [r4, #532]	; 0x214
 80013a0:	f884 31fd 	strb.w	r3, [r4, #509]	; 0x1fd
 80013a4:	f884 51fc 	strb.w	r5, [r4, #508]	; 0x1fc
 80013a8:	6903      	ldr	r3, [r0, #16]
 80013aa:	6800      	ldr	r0, [r0, #0]
 80013ac:	2b01      	cmp	r3, #1
 80013ae:	bf08      	it	eq
 80013b0:	f8c4 220c 	streq.w	r2, [r4, #524]	; 0x20c
 80013b4:	b2da      	uxtb	r2, r3
 80013b6:	b91d      	cbnz	r5, 80013c0 <HAL_PCD_EP_Receive+0x42>
 80013b8:	f000 fed0 	bl	800215c <USB_EP0StartXfer>
 80013bc:	2000      	movs	r0, #0
 80013be:	bd38      	pop	{r3, r4, r5, pc}
 80013c0:	f000 ff54 	bl	800226c <USB_EPStartXfer>
 80013c4:	e7fa      	b.n	80013bc <HAL_PCD_EP_Receive+0x3e>

080013c6 <HAL_PCD_EP_GetRxCount>:
 80013c6:	231c      	movs	r3, #28
 80013c8:	f001 010f 	and.w	r1, r1, #15
 80013cc:	fb03 0101 	mla	r1, r3, r1, r0
 80013d0:	f8d1 0214 	ldr.w	r0, [r1, #532]	; 0x214
 80013d4:	4770      	bx	lr

080013d6 <HAL_PCD_EP_Transmit>:
 80013d6:	b538      	push	{r3, r4, r5, lr}
 80013d8:	f001 050f 	and.w	r5, r1, #15
 80013dc:	241c      	movs	r4, #28
 80013de:	fb04 0105 	mla	r1, r4, r5, r0
 80013e2:	fb04 0405 	mla	r4, r4, r5, r0
 80013e6:	313c      	adds	r1, #60	; 0x3c
 80013e8:	6523      	str	r3, [r4, #80]	; 0x50
 80013ea:	2300      	movs	r3, #0
 80013ec:	6563      	str	r3, [r4, #84]	; 0x54
 80013ee:	2301      	movs	r3, #1
 80013f0:	64a2      	str	r2, [r4, #72]	; 0x48
 80013f2:	f884 303d 	strb.w	r3, [r4, #61]	; 0x3d
 80013f6:	f884 503c 	strb.w	r5, [r4, #60]	; 0x3c
 80013fa:	6903      	ldr	r3, [r0, #16]
 80013fc:	6800      	ldr	r0, [r0, #0]
 80013fe:	2b01      	cmp	r3, #1
 8001400:	bf08      	it	eq
 8001402:	64e2      	streq	r2, [r4, #76]	; 0x4c
 8001404:	b2da      	uxtb	r2, r3
 8001406:	b91d      	cbnz	r5, 8001410 <HAL_PCD_EP_Transmit+0x3a>
 8001408:	f000 fea8 	bl	800215c <USB_EP0StartXfer>
 800140c:	2000      	movs	r0, #0
 800140e:	bd38      	pop	{r3, r4, r5, pc}
 8001410:	f000 ff2c 	bl	800226c <USB_EPStartXfer>
 8001414:	e7fa      	b.n	800140c <HAL_PCD_EP_Transmit+0x36>

08001416 <HAL_PCD_EP_SetStall>:
 8001416:	b538      	push	{r3, r4, r5, lr}
 8001418:	6843      	ldr	r3, [r0, #4]
 800141a:	f001 050f 	and.w	r5, r1, #15
 800141e:	429d      	cmp	r5, r3
 8001420:	4604      	mov	r4, r0
 8001422:	d82e      	bhi.n	8001482 <HAL_PCD_EP_SetStall+0x6c>
 8001424:	f011 0f80 	tst.w	r1, #128	; 0x80
 8001428:	f04f 021c 	mov.w	r2, #28
 800142c:	d01f      	beq.n	800146e <HAL_PCD_EP_SetStall+0x58>
 800142e:	fb02 0105 	mla	r1, r2, r5, r0
 8001432:	fb02 0305 	mla	r3, r2, r5, r0
 8001436:	2201      	movs	r2, #1
 8001438:	333c      	adds	r3, #60	; 0x3c
 800143a:	f881 203d 	strb.w	r2, [r1, #61]	; 0x3d
 800143e:	2201      	movs	r2, #1
 8001440:	709a      	strb	r2, [r3, #2]
 8001442:	701d      	strb	r5, [r3, #0]
 8001444:	f894 13bc 	ldrb.w	r1, [r4, #956]	; 0x3bc
 8001448:	4291      	cmp	r1, r2
 800144a:	d01c      	beq.n	8001486 <HAL_PCD_EP_SetStall+0x70>
 800144c:	f884 23bc 	strb.w	r2, [r4, #956]	; 0x3bc
 8001450:	4619      	mov	r1, r3
 8001452:	6820      	ldr	r0, [r4, #0]
 8001454:	f000 fff0 	bl	8002438 <USB_EPSetStall>
 8001458:	b92d      	cbnz	r5, 8001466 <HAL_PCD_EP_SetStall+0x50>
 800145a:	f504 7271 	add.w	r2, r4, #964	; 0x3c4
 800145e:	7c21      	ldrb	r1, [r4, #16]
 8001460:	6820      	ldr	r0, [r4, #0]
 8001462:	f001 f8b3 	bl	80025cc <USB_EP0_OutStart>
 8001466:	2000      	movs	r0, #0
 8001468:	f884 03bc 	strb.w	r0, [r4, #956]	; 0x3bc
 800146c:	bd38      	pop	{r3, r4, r5, pc}
 800146e:	fb02 0301 	mla	r3, r2, r1, r0
 8001472:	fb02 0101 	mla	r1, r2, r1, r0
 8001476:	2200      	movs	r2, #0
 8001478:	f503 73fe 	add.w	r3, r3, #508	; 0x1fc
 800147c:	f881 21fd 	strb.w	r2, [r1, #509]	; 0x1fd
 8001480:	e7dd      	b.n	800143e <HAL_PCD_EP_SetStall+0x28>
 8001482:	2001      	movs	r0, #1
 8001484:	e7f2      	b.n	800146c <HAL_PCD_EP_SetStall+0x56>
 8001486:	2002      	movs	r0, #2
 8001488:	e7f0      	b.n	800146c <HAL_PCD_EP_SetStall+0x56>

0800148a <HAL_PCD_EP_ClrStall>:
 800148a:	b538      	push	{r3, r4, r5, lr}
 800148c:	6843      	ldr	r3, [r0, #4]
 800148e:	f001 020f 	and.w	r2, r1, #15
 8001492:	429a      	cmp	r2, r3
 8001494:	4604      	mov	r4, r0
 8001496:	d82a      	bhi.n	80014ee <HAL_PCD_EP_ClrStall+0x64>
 8001498:	ebc2 03c2 	rsb	r3, r2, r2, lsl #3
 800149c:	f011 0f80 	tst.w	r1, #128	; 0x80
 80014a0:	ea4f 0383 	mov.w	r3, r3, lsl #2
 80014a4:	f04f 001c 	mov.w	r0, #28
 80014a8:	d018      	beq.n	80014dc <HAL_PCD_EP_ClrStall+0x52>
 80014aa:	fb00 4002 	mla	r0, r0, r2, r4
 80014ae:	f103 013c 	add.w	r1, r3, #60	; 0x3c
 80014b2:	2301      	movs	r3, #1
 80014b4:	4421      	add	r1, r4
 80014b6:	f880 303d 	strb.w	r3, [r0, #61]	; 0x3d
 80014ba:	2500      	movs	r5, #0
 80014bc:	708d      	strb	r5, [r1, #2]
 80014be:	700a      	strb	r2, [r1, #0]
 80014c0:	f894 33bc 	ldrb.w	r3, [r4, #956]	; 0x3bc
 80014c4:	2b01      	cmp	r3, #1
 80014c6:	d014      	beq.n	80014f2 <HAL_PCD_EP_ClrStall+0x68>
 80014c8:	2301      	movs	r3, #1
 80014ca:	f884 33bc 	strb.w	r3, [r4, #956]	; 0x3bc
 80014ce:	6820      	ldr	r0, [r4, #0]
 80014d0:	f000 ffdd 	bl	800248e <USB_EPClearStall>
 80014d4:	f884 53bc 	strb.w	r5, [r4, #956]	; 0x3bc
 80014d8:	4628      	mov	r0, r5
 80014da:	bd38      	pop	{r3, r4, r5, pc}
 80014dc:	fb00 4002 	mla	r0, r0, r2, r4
 80014e0:	f503 71fe 	add.w	r1, r3, #508	; 0x1fc
 80014e4:	2300      	movs	r3, #0
 80014e6:	4421      	add	r1, r4
 80014e8:	f880 31fd 	strb.w	r3, [r0, #509]	; 0x1fd
 80014ec:	e7e5      	b.n	80014ba <HAL_PCD_EP_ClrStall+0x30>
 80014ee:	2001      	movs	r0, #1
 80014f0:	e7f3      	b.n	80014da <HAL_PCD_EP_ClrStall+0x50>
 80014f2:	2002      	movs	r0, #2
 80014f4:	e7f1      	b.n	80014da <HAL_PCD_EP_ClrStall+0x50>

080014f6 <HAL_PCDEx_SetTxFiFo>:
 80014f6:	6800      	ldr	r0, [r0, #0]
 80014f8:	b570      	push	{r4, r5, r6, lr}
 80014fa:	0412      	lsls	r2, r2, #16
 80014fc:	6a44      	ldr	r4, [r0, #36]	; 0x24
 80014fe:	b919      	cbnz	r1, 8001508 <HAL_PCDEx_SetTxFiFo+0x12>
 8001500:	4322      	orrs	r2, r4
 8001502:	6282      	str	r2, [r0, #40]	; 0x28
 8001504:	2000      	movs	r0, #0
 8001506:	bd70      	pop	{r4, r5, r6, pc}
 8001508:	6a83      	ldr	r3, [r0, #40]	; 0x28
 800150a:	1e4d      	subs	r5, r1, #1
 800150c:	eb04 4413 	add.w	r4, r4, r3, lsr #16
 8001510:	2300      	movs	r3, #0
 8001512:	1c5e      	adds	r6, r3, #1
 8001514:	b2db      	uxtb	r3, r3
 8001516:	429d      	cmp	r5, r3
 8001518:	d805      	bhi.n	8001526 <HAL_PCDEx_SetTxFiFo+0x30>
 800151a:	313f      	adds	r1, #63	; 0x3f
 800151c:	eb00 0081 	add.w	r0, r0, r1, lsl #2
 8001520:	4322      	orrs	r2, r4
 8001522:	6042      	str	r2, [r0, #4]
 8001524:	e7ee      	b.n	8001504 <HAL_PCDEx_SetTxFiFo+0xe>
 8001526:	3340      	adds	r3, #64	; 0x40
 8001528:	eb00 0383 	add.w	r3, r0, r3, lsl #2
 800152c:	685b      	ldr	r3, [r3, #4]
 800152e:	eb04 4413 	add.w	r4, r4, r3, lsr #16
 8001532:	4633      	mov	r3, r6
 8001534:	e7ed      	b.n	8001512 <HAL_PCDEx_SetTxFiFo+0x1c>

08001536 <HAL_PCDEx_SetRxFiFo>:
 8001536:	6803      	ldr	r3, [r0, #0]
 8001538:	2000      	movs	r0, #0
 800153a:	6259      	str	r1, [r3, #36]	; 0x24
 800153c:	4770      	bx	lr

0800153e <HAL_PCDEx_LPM_Callback>:
 800153e:	4770      	bx	lr

08001540 <HAL_RCC_OscConfig>:
 8001540:	e92d 41f3 	stmdb	sp!, {r0, r1, r4, r5, r6, r7, r8, lr}
 8001544:	4604      	mov	r4, r0
 8001546:	b908      	cbnz	r0, 800154c <HAL_RCC_OscConfig+0xc>
 8001548:	2001      	movs	r0, #1
 800154a:	e03f      	b.n	80015cc <HAL_RCC_OscConfig+0x8c>
 800154c:	6803      	ldr	r3, [r0, #0]
 800154e:	07dd      	lsls	r5, r3, #31
 8001550:	d410      	bmi.n	8001574 <HAL_RCC_OscConfig+0x34>
 8001552:	6823      	ldr	r3, [r4, #0]
 8001554:	0798      	lsls	r0, r3, #30
 8001556:	d45a      	bmi.n	800160e <HAL_RCC_OscConfig+0xce>
 8001558:	6823      	ldr	r3, [r4, #0]
 800155a:	071a      	lsls	r2, r3, #28
 800155c:	f100 809c 	bmi.w	8001698 <HAL_RCC_OscConfig+0x158>
 8001560:	6823      	ldr	r3, [r4, #0]
 8001562:	075b      	lsls	r3, r3, #29
 8001564:	f100 80ba 	bmi.w	80016dc <HAL_RCC_OscConfig+0x19c>
 8001568:	69a0      	ldr	r0, [r4, #24]
 800156a:	2800      	cmp	r0, #0
 800156c:	f040 811b 	bne.w	80017a6 <HAL_RCC_OscConfig+0x266>
 8001570:	2000      	movs	r0, #0
 8001572:	e02b      	b.n	80015cc <HAL_RCC_OscConfig+0x8c>
 8001574:	4ba7      	ldr	r3, [pc, #668]	; (8001814 <HAL_RCC_OscConfig+0x2d4>)
 8001576:	689a      	ldr	r2, [r3, #8]
 8001578:	f002 020c 	and.w	r2, r2, #12
 800157c:	2a04      	cmp	r2, #4
 800157e:	d007      	beq.n	8001590 <HAL_RCC_OscConfig+0x50>
 8001580:	689a      	ldr	r2, [r3, #8]
 8001582:	f002 020c 	and.w	r2, r2, #12
 8001586:	2a08      	cmp	r2, #8
 8001588:	d10a      	bne.n	80015a0 <HAL_RCC_OscConfig+0x60>
 800158a:	685b      	ldr	r3, [r3, #4]
 800158c:	0259      	lsls	r1, r3, #9
 800158e:	d507      	bpl.n	80015a0 <HAL_RCC_OscConfig+0x60>
 8001590:	4ba0      	ldr	r3, [pc, #640]	; (8001814 <HAL_RCC_OscConfig+0x2d4>)
 8001592:	681b      	ldr	r3, [r3, #0]
 8001594:	039a      	lsls	r2, r3, #14
 8001596:	d5dc      	bpl.n	8001552 <HAL_RCC_OscConfig+0x12>
 8001598:	6863      	ldr	r3, [r4, #4]
 800159a:	2b00      	cmp	r3, #0
 800159c:	d1d9      	bne.n	8001552 <HAL_RCC_OscConfig+0x12>
 800159e:	e7d3      	b.n	8001548 <HAL_RCC_OscConfig+0x8>
 80015a0:	6863      	ldr	r3, [r4, #4]
 80015a2:	4d9c      	ldr	r5, [pc, #624]	; (8001814 <HAL_RCC_OscConfig+0x2d4>)
 80015a4:	f5b3 3f80 	cmp.w	r3, #65536	; 0x10000
 80015a8:	d113      	bne.n	80015d2 <HAL_RCC_OscConfig+0x92>
 80015aa:	682b      	ldr	r3, [r5, #0]
 80015ac:	f443 3380 	orr.w	r3, r3, #65536	; 0x10000
 80015b0:	602b      	str	r3, [r5, #0]
 80015b2:	f7ff f993 	bl	80008dc <HAL_GetTick>
 80015b6:	4d97      	ldr	r5, [pc, #604]	; (8001814 <HAL_RCC_OscConfig+0x2d4>)
 80015b8:	4606      	mov	r6, r0
 80015ba:	682b      	ldr	r3, [r5, #0]
 80015bc:	039b      	lsls	r3, r3, #14
 80015be:	d4c8      	bmi.n	8001552 <HAL_RCC_OscConfig+0x12>
 80015c0:	f7ff f98c 	bl	80008dc <HAL_GetTick>
 80015c4:	1b80      	subs	r0, r0, r6
 80015c6:	2864      	cmp	r0, #100	; 0x64
 80015c8:	d9f7      	bls.n	80015ba <HAL_RCC_OscConfig+0x7a>
 80015ca:	2003      	movs	r0, #3
 80015cc:	b002      	add	sp, #8
 80015ce:	e8bd 81f0 	ldmia.w	sp!, {r4, r5, r6, r7, r8, pc}
 80015d2:	f5b3 2fa0 	cmp.w	r3, #327680	; 0x50000
 80015d6:	d104      	bne.n	80015e2 <HAL_RCC_OscConfig+0xa2>
 80015d8:	682b      	ldr	r3, [r5, #0]
 80015da:	f443 2380 	orr.w	r3, r3, #262144	; 0x40000
 80015de:	602b      	str	r3, [r5, #0]
 80015e0:	e7e3      	b.n	80015aa <HAL_RCC_OscConfig+0x6a>
 80015e2:	682a      	ldr	r2, [r5, #0]
 80015e4:	f422 3280 	bic.w	r2, r2, #65536	; 0x10000
 80015e8:	602a      	str	r2, [r5, #0]
 80015ea:	682a      	ldr	r2, [r5, #0]
 80015ec:	f422 2280 	bic.w	r2, r2, #262144	; 0x40000
 80015f0:	602a      	str	r2, [r5, #0]
 80015f2:	2b00      	cmp	r3, #0
 80015f4:	d1dd      	bne.n	80015b2 <HAL_RCC_OscConfig+0x72>
 80015f6:	f7ff f971 	bl	80008dc <HAL_GetTick>
 80015fa:	4606      	mov	r6, r0
 80015fc:	682b      	ldr	r3, [r5, #0]
 80015fe:	039f      	lsls	r7, r3, #14
 8001600:	d5a7      	bpl.n	8001552 <HAL_RCC_OscConfig+0x12>
 8001602:	f7ff f96b 	bl	80008dc <HAL_GetTick>
 8001606:	1b80      	subs	r0, r0, r6
 8001608:	2864      	cmp	r0, #100	; 0x64
 800160a:	d9f7      	bls.n	80015fc <HAL_RCC_OscConfig+0xbc>
 800160c:	e7dd      	b.n	80015ca <HAL_RCC_OscConfig+0x8a>
 800160e:	4b81      	ldr	r3, [pc, #516]	; (8001814 <HAL_RCC_OscConfig+0x2d4>)
 8001610:	689a      	ldr	r2, [r3, #8]
 8001612:	f012 0f0c 	tst.w	r2, #12
 8001616:	d007      	beq.n	8001628 <HAL_RCC_OscConfig+0xe8>
 8001618:	689a      	ldr	r2, [r3, #8]
 800161a:	f002 020c 	and.w	r2, r2, #12
 800161e:	2a08      	cmp	r2, #8
 8001620:	d111      	bne.n	8001646 <HAL_RCC_OscConfig+0x106>
 8001622:	685b      	ldr	r3, [r3, #4]
 8001624:	025e      	lsls	r6, r3, #9
 8001626:	d40e      	bmi.n	8001646 <HAL_RCC_OscConfig+0x106>
 8001628:	4b7a      	ldr	r3, [pc, #488]	; (8001814 <HAL_RCC_OscConfig+0x2d4>)
 800162a:	681a      	ldr	r2, [r3, #0]
 800162c:	0795      	lsls	r5, r2, #30
 800162e:	d502      	bpl.n	8001636 <HAL_RCC_OscConfig+0xf6>
 8001630:	68e2      	ldr	r2, [r4, #12]
 8001632:	2a01      	cmp	r2, #1
 8001634:	d188      	bne.n	8001548 <HAL_RCC_OscConfig+0x8>
 8001636:	681a      	ldr	r2, [r3, #0]
 8001638:	6921      	ldr	r1, [r4, #16]
 800163a:	f022 02f8 	bic.w	r2, r2, #248	; 0xf8
 800163e:	ea42 02c1 	orr.w	r2, r2, r1, lsl #3
 8001642:	601a      	str	r2, [r3, #0]
 8001644:	e788      	b.n	8001558 <HAL_RCC_OscConfig+0x18>
 8001646:	68e2      	ldr	r2, [r4, #12]
 8001648:	4b73      	ldr	r3, [pc, #460]	; (8001818 <HAL_RCC_OscConfig+0x2d8>)
 800164a:	b1b2      	cbz	r2, 800167a <HAL_RCC_OscConfig+0x13a>
 800164c:	2201      	movs	r2, #1
 800164e:	601a      	str	r2, [r3, #0]
 8001650:	f7ff f944 	bl	80008dc <HAL_GetTick>
 8001654:	4d6f      	ldr	r5, [pc, #444]	; (8001814 <HAL_RCC_OscConfig+0x2d4>)
 8001656:	4606      	mov	r6, r0
 8001658:	682b      	ldr	r3, [r5, #0]
 800165a:	0798      	lsls	r0, r3, #30
 800165c:	d507      	bpl.n	800166e <HAL_RCC_OscConfig+0x12e>
 800165e:	682b      	ldr	r3, [r5, #0]
 8001660:	6922      	ldr	r2, [r4, #16]
 8001662:	f023 03f8 	bic.w	r3, r3, #248	; 0xf8
 8001666:	ea43 03c2 	orr.w	r3, r3, r2, lsl #3
 800166a:	602b      	str	r3, [r5, #0]
 800166c:	e774      	b.n	8001558 <HAL_RCC_OscConfig+0x18>
 800166e:	f7ff f935 	bl	80008dc <HAL_GetTick>
 8001672:	1b80      	subs	r0, r0, r6
 8001674:	2802      	cmp	r0, #2
 8001676:	d9ef      	bls.n	8001658 <HAL_RCC_OscConfig+0x118>
 8001678:	e7a7      	b.n	80015ca <HAL_RCC_OscConfig+0x8a>
 800167a:	601a      	str	r2, [r3, #0]
 800167c:	f7ff f92e 	bl	80008dc <HAL_GetTick>
 8001680:	4d64      	ldr	r5, [pc, #400]	; (8001814 <HAL_RCC_OscConfig+0x2d4>)
 8001682:	4606      	mov	r6, r0
 8001684:	682b      	ldr	r3, [r5, #0]
 8001686:	0799      	lsls	r1, r3, #30
 8001688:	f57f af66 	bpl.w	8001558 <HAL_RCC_OscConfig+0x18>
 800168c:	f7ff f926 	bl	80008dc <HAL_GetTick>
 8001690:	1b80      	subs	r0, r0, r6
 8001692:	2802      	cmp	r0, #2
 8001694:	d9f6      	bls.n	8001684 <HAL_RCC_OscConfig+0x144>
 8001696:	e798      	b.n	80015ca <HAL_RCC_OscConfig+0x8a>
 8001698:	6962      	ldr	r2, [r4, #20]
 800169a:	4b60      	ldr	r3, [pc, #384]	; (800181c <HAL_RCC_OscConfig+0x2dc>)
 800169c:	b17a      	cbz	r2, 80016be <HAL_RCC_OscConfig+0x17e>
 800169e:	2201      	movs	r2, #1
 80016a0:	601a      	str	r2, [r3, #0]
 80016a2:	f7ff f91b 	bl	80008dc <HAL_GetTick>
 80016a6:	4d5b      	ldr	r5, [pc, #364]	; (8001814 <HAL_RCC_OscConfig+0x2d4>)
 80016a8:	4606      	mov	r6, r0
 80016aa:	6f6b      	ldr	r3, [r5, #116]	; 0x74
 80016ac:	079f      	lsls	r7, r3, #30
 80016ae:	f53f af57 	bmi.w	8001560 <HAL_RCC_OscConfig+0x20>
 80016b2:	f7ff f913 	bl	80008dc <HAL_GetTick>
 80016b6:	1b80      	subs	r0, r0, r6
 80016b8:	2802      	cmp	r0, #2
 80016ba:	d9f6      	bls.n	80016aa <HAL_RCC_OscConfig+0x16a>
 80016bc:	e785      	b.n	80015ca <HAL_RCC_OscConfig+0x8a>
 80016be:	601a      	str	r2, [r3, #0]
 80016c0:	f7ff f90c 	bl	80008dc <HAL_GetTick>
 80016c4:	4d53      	ldr	r5, [pc, #332]	; (8001814 <HAL_RCC_OscConfig+0x2d4>)
 80016c6:	4606      	mov	r6, r0
 80016c8:	6f6b      	ldr	r3, [r5, #116]	; 0x74
 80016ca:	0798      	lsls	r0, r3, #30
 80016cc:	f57f af48 	bpl.w	8001560 <HAL_RCC_OscConfig+0x20>
 80016d0:	f7ff f904 	bl	80008dc <HAL_GetTick>
 80016d4:	1b80      	subs	r0, r0, r6
 80016d6:	2802      	cmp	r0, #2
 80016d8:	d9f6      	bls.n	80016c8 <HAL_RCC_OscConfig+0x188>
 80016da:	e776      	b.n	80015ca <HAL_RCC_OscConfig+0x8a>
 80016dc:	4b4d      	ldr	r3, [pc, #308]	; (8001814 <HAL_RCC_OscConfig+0x2d4>)
 80016de:	6c1a      	ldr	r2, [r3, #64]	; 0x40
 80016e0:	f012 5280 	ands.w	r2, r2, #268435456	; 0x10000000
 80016e4:	d128      	bne.n	8001738 <HAL_RCC_OscConfig+0x1f8>
 80016e6:	9201      	str	r2, [sp, #4]
 80016e8:	6c1a      	ldr	r2, [r3, #64]	; 0x40
 80016ea:	f042 5280 	orr.w	r2, r2, #268435456	; 0x10000000
 80016ee:	641a      	str	r2, [r3, #64]	; 0x40
 80016f0:	6c1b      	ldr	r3, [r3, #64]	; 0x40
 80016f2:	f003 5380 	and.w	r3, r3, #268435456	; 0x10000000
 80016f6:	9301      	str	r3, [sp, #4]
 80016f8:	9b01      	ldr	r3, [sp, #4]
 80016fa:	2601      	movs	r6, #1
 80016fc:	4d48      	ldr	r5, [pc, #288]	; (8001820 <HAL_RCC_OscConfig+0x2e0>)
 80016fe:	682b      	ldr	r3, [r5, #0]
 8001700:	05d9      	lsls	r1, r3, #23
 8001702:	d51b      	bpl.n	800173c <HAL_RCC_OscConfig+0x1fc>
 8001704:	68a3      	ldr	r3, [r4, #8]
 8001706:	4d43      	ldr	r5, [pc, #268]	; (8001814 <HAL_RCC_OscConfig+0x2d4>)
 8001708:	2b01      	cmp	r3, #1
 800170a:	d127      	bne.n	800175c <HAL_RCC_OscConfig+0x21c>
 800170c:	6f2b      	ldr	r3, [r5, #112]	; 0x70
 800170e:	f043 0301 	orr.w	r3, r3, #1
 8001712:	672b      	str	r3, [r5, #112]	; 0x70
 8001714:	f7ff f8e2 	bl	80008dc <HAL_GetTick>
 8001718:	4d3e      	ldr	r5, [pc, #248]	; (8001814 <HAL_RCC_OscConfig+0x2d4>)
 800171a:	4607      	mov	r7, r0
 800171c:	f241 3888 	movw	r8, #5000	; 0x1388
 8001720:	6f2b      	ldr	r3, [r5, #112]	; 0x70
 8001722:	079b      	lsls	r3, r3, #30
 8001724:	d539      	bpl.n	800179a <HAL_RCC_OscConfig+0x25a>
 8001726:	2e00      	cmp	r6, #0
 8001728:	f43f af1e 	beq.w	8001568 <HAL_RCC_OscConfig+0x28>
 800172c:	4a39      	ldr	r2, [pc, #228]	; (8001814 <HAL_RCC_OscConfig+0x2d4>)
 800172e:	6c13      	ldr	r3, [r2, #64]	; 0x40
 8001730:	f023 5380 	bic.w	r3, r3, #268435456	; 0x10000000
 8001734:	6413      	str	r3, [r2, #64]	; 0x40
 8001736:	e717      	b.n	8001568 <HAL_RCC_OscConfig+0x28>
 8001738:	2600      	movs	r6, #0
 800173a:	e7df      	b.n	80016fc <HAL_RCC_OscConfig+0x1bc>
 800173c:	682b      	ldr	r3, [r5, #0]
 800173e:	f443 7380 	orr.w	r3, r3, #256	; 0x100
 8001742:	602b      	str	r3, [r5, #0]
 8001744:	f7ff f8ca 	bl	80008dc <HAL_GetTick>
 8001748:	4607      	mov	r7, r0
 800174a:	682b      	ldr	r3, [r5, #0]
 800174c:	05da      	lsls	r2, r3, #23
 800174e:	d4d9      	bmi.n	8001704 <HAL_RCC_OscConfig+0x1c4>
 8001750:	f7ff f8c4 	bl	80008dc <HAL_GetTick>
 8001754:	1bc0      	subs	r0, r0, r7
 8001756:	2802      	cmp	r0, #2
 8001758:	d9f7      	bls.n	800174a <HAL_RCC_OscConfig+0x20a>
 800175a:	e736      	b.n	80015ca <HAL_RCC_OscConfig+0x8a>
 800175c:	2b05      	cmp	r3, #5
 800175e:	d104      	bne.n	800176a <HAL_RCC_OscConfig+0x22a>
 8001760:	6f2b      	ldr	r3, [r5, #112]	; 0x70
 8001762:	f043 0304 	orr.w	r3, r3, #4
 8001766:	672b      	str	r3, [r5, #112]	; 0x70
 8001768:	e7d0      	b.n	800170c <HAL_RCC_OscConfig+0x1cc>
 800176a:	6f2a      	ldr	r2, [r5, #112]	; 0x70
 800176c:	f022 0201 	bic.w	r2, r2, #1
 8001770:	672a      	str	r2, [r5, #112]	; 0x70
 8001772:	6f2a      	ldr	r2, [r5, #112]	; 0x70
 8001774:	f022 0204 	bic.w	r2, r2, #4
 8001778:	672a      	str	r2, [r5, #112]	; 0x70
 800177a:	2b00      	cmp	r3, #0
 800177c:	d1ca      	bne.n	8001714 <HAL_RCC_OscConfig+0x1d4>
 800177e:	f7ff f8ad 	bl	80008dc <HAL_GetTick>
 8001782:	f241 3888 	movw	r8, #5000	; 0x1388
 8001786:	4607      	mov	r7, r0
 8001788:	6f2b      	ldr	r3, [r5, #112]	; 0x70
 800178a:	0798      	lsls	r0, r3, #30
 800178c:	d5cb      	bpl.n	8001726 <HAL_RCC_OscConfig+0x1e6>
 800178e:	f7ff f8a5 	bl	80008dc <HAL_GetTick>
 8001792:	1bc0      	subs	r0, r0, r7
 8001794:	4540      	cmp	r0, r8
 8001796:	d9f7      	bls.n	8001788 <HAL_RCC_OscConfig+0x248>
 8001798:	e717      	b.n	80015ca <HAL_RCC_OscConfig+0x8a>
 800179a:	f7ff f89f 	bl	80008dc <HAL_GetTick>
 800179e:	1bc0      	subs	r0, r0, r7
 80017a0:	4540      	cmp	r0, r8
 80017a2:	d9bd      	bls.n	8001720 <HAL_RCC_OscConfig+0x1e0>
 80017a4:	e711      	b.n	80015ca <HAL_RCC_OscConfig+0x8a>
 80017a6:	4d1b      	ldr	r5, [pc, #108]	; (8001814 <HAL_RCC_OscConfig+0x2d4>)
 80017a8:	68ab      	ldr	r3, [r5, #8]
 80017aa:	f003 030c 	and.w	r3, r3, #12
 80017ae:	2b08      	cmp	r3, #8
 80017b0:	d047      	beq.n	8001842 <HAL_RCC_OscConfig+0x302>
 80017b2:	4e1c      	ldr	r6, [pc, #112]	; (8001824 <HAL_RCC_OscConfig+0x2e4>)
 80017b4:	2300      	movs	r3, #0
 80017b6:	2802      	cmp	r0, #2
 80017b8:	6033      	str	r3, [r6, #0]
 80017ba:	d135      	bne.n	8001828 <HAL_RCC_OscConfig+0x2e8>
 80017bc:	f7ff f88e 	bl	80008dc <HAL_GetTick>
 80017c0:	4607      	mov	r7, r0
 80017c2:	682b      	ldr	r3, [r5, #0]
 80017c4:	0199      	lsls	r1, r3, #6
 80017c6:	d41e      	bmi.n	8001806 <HAL_RCC_OscConfig+0x2c6>
 80017c8:	e9d4 3207 	ldrd	r3, r2, [r4, #28]
 80017cc:	4313      	orrs	r3, r2
 80017ce:	6a62      	ldr	r2, [r4, #36]	; 0x24
 80017d0:	ea43 1382 	orr.w	r3, r3, r2, lsl #6
 80017d4:	6ae2      	ldr	r2, [r4, #44]	; 0x2c
 80017d6:	ea43 6302 	orr.w	r3, r3, r2, lsl #24
 80017da:	6aa2      	ldr	r2, [r4, #40]	; 0x28
 80017dc:	4c0d      	ldr	r4, [pc, #52]	; (8001814 <HAL_RCC_OscConfig+0x2d4>)
 80017de:	0852      	lsrs	r2, r2, #1
 80017e0:	3a01      	subs	r2, #1
 80017e2:	ea43 4302 	orr.w	r3, r3, r2, lsl #16
 80017e6:	606b      	str	r3, [r5, #4]
 80017e8:	2301      	movs	r3, #1
 80017ea:	6033      	str	r3, [r6, #0]
 80017ec:	f7ff f876 	bl	80008dc <HAL_GetTick>
 80017f0:	4605      	mov	r5, r0
 80017f2:	6823      	ldr	r3, [r4, #0]
 80017f4:	019a      	lsls	r2, r3, #6
 80017f6:	f53f aebb 	bmi.w	8001570 <HAL_RCC_OscConfig+0x30>
 80017fa:	f7ff f86f 	bl	80008dc <HAL_GetTick>
 80017fe:	1b40      	subs	r0, r0, r5
 8001800:	2802      	cmp	r0, #2
 8001802:	d9f6      	bls.n	80017f2 <HAL_RCC_OscConfig+0x2b2>
 8001804:	e6e1      	b.n	80015ca <HAL_RCC_OscConfig+0x8a>
 8001806:	f7ff f869 	bl	80008dc <HAL_GetTick>
 800180a:	1bc0      	subs	r0, r0, r7
 800180c:	2802      	cmp	r0, #2
 800180e:	d9d8      	bls.n	80017c2 <HAL_RCC_OscConfig+0x282>
 8001810:	e6db      	b.n	80015ca <HAL_RCC_OscConfig+0x8a>
 8001812:	bf00      	nop
 8001814:	40023800 	.word	0x40023800
 8001818:	42470000 	.word	0x42470000
 800181c:	42470e80 	.word	0x42470e80
 8001820:	40007000 	.word	0x40007000
 8001824:	42470060 	.word	0x42470060
 8001828:	f7ff f858 	bl	80008dc <HAL_GetTick>
 800182c:	4604      	mov	r4, r0
 800182e:	682b      	ldr	r3, [r5, #0]
 8001830:	019b      	lsls	r3, r3, #6
 8001832:	f57f ae9d 	bpl.w	8001570 <HAL_RCC_OscConfig+0x30>
 8001836:	f7ff f851 	bl	80008dc <HAL_GetTick>
 800183a:	1b00      	subs	r0, r0, r4
 800183c:	2802      	cmp	r0, #2
 800183e:	d9f6      	bls.n	800182e <HAL_RCC_OscConfig+0x2ee>
 8001840:	e6c3      	b.n	80015ca <HAL_RCC_OscConfig+0x8a>
 8001842:	2801      	cmp	r0, #1
 8001844:	f43f aec2 	beq.w	80015cc <HAL_RCC_OscConfig+0x8c>
 8001848:	68a8      	ldr	r0, [r5, #8]
 800184a:	69e3      	ldr	r3, [r4, #28]
 800184c:	f400 0280 	and.w	r2, r0, #4194304	; 0x400000
 8001850:	429a      	cmp	r2, r3
 8001852:	f47f ae79 	bne.w	8001548 <HAL_RCC_OscConfig+0x8>
 8001856:	6a22      	ldr	r2, [r4, #32]
 8001858:	f000 033f 	and.w	r3, r0, #63	; 0x3f
 800185c:	4293      	cmp	r3, r2
 800185e:	f47f ae73 	bne.w	8001548 <HAL_RCC_OscConfig+0x8>
 8001862:	6a62      	ldr	r2, [r4, #36]	; 0x24
 8001864:	f647 73c0 	movw	r3, #32704	; 0x7fc0
 8001868:	4003      	ands	r3, r0
 800186a:	4293      	cmp	r3, r2
 800186c:	f47f ae6c 	bne.w	8001548 <HAL_RCC_OscConfig+0x8>
 8001870:	6aa2      	ldr	r2, [r4, #40]	; 0x28
 8001872:	f400 3340 	and.w	r3, r0, #196608	; 0x30000
 8001876:	4293      	cmp	r3, r2
 8001878:	f47f ae66 	bne.w	8001548 <HAL_RCC_OscConfig+0x8>
 800187c:	6ae3      	ldr	r3, [r4, #44]	; 0x2c
 800187e:	f000 6070 	and.w	r0, r0, #251658240	; 0xf000000
 8001882:	1ac0      	subs	r0, r0, r3
 8001884:	bf18      	it	ne
 8001886:	2001      	movne	r0, #1
 8001888:	e6a0      	b.n	80015cc <HAL_RCC_OscConfig+0x8c>
 800188a:	bf00      	nop

0800188c <HAL_RCC_GetSysClockFreq>:
 800188c:	4913      	ldr	r1, [pc, #76]	; (80018dc <HAL_RCC_GetSysClockFreq+0x50>)
 800188e:	b508      	push	{r3, lr}
 8001890:	688b      	ldr	r3, [r1, #8]
 8001892:	f003 030c 	and.w	r3, r3, #12
 8001896:	2b04      	cmp	r3, #4
 8001898:	d003      	beq.n	80018a2 <HAL_RCC_GetSysClockFreq+0x16>
 800189a:	2b08      	cmp	r3, #8
 800189c:	d003      	beq.n	80018a6 <HAL_RCC_GetSysClockFreq+0x1a>
 800189e:	4810      	ldr	r0, [pc, #64]	; (80018e0 <HAL_RCC_GetSysClockFreq+0x54>)
 80018a0:	e000      	b.n	80018a4 <HAL_RCC_GetSysClockFreq+0x18>
 80018a2:	4810      	ldr	r0, [pc, #64]	; (80018e4 <HAL_RCC_GetSysClockFreq+0x58>)
 80018a4:	bd08      	pop	{r3, pc}
 80018a6:	684a      	ldr	r2, [r1, #4]
 80018a8:	684b      	ldr	r3, [r1, #4]
 80018aa:	6849      	ldr	r1, [r1, #4]
 80018ac:	f413 0380 	ands.w	r3, r3, #4194304	; 0x400000
 80018b0:	bf14      	ite	ne
 80018b2:	480c      	ldrne	r0, [pc, #48]	; (80018e4 <HAL_RCC_GetSysClockFreq+0x58>)
 80018b4:	480a      	ldreq	r0, [pc, #40]	; (80018e0 <HAL_RCC_GetSysClockFreq+0x54>)
 80018b6:	f3c1 1188 	ubfx	r1, r1, #6, #9
 80018ba:	bf18      	it	ne
 80018bc:	2300      	movne	r3, #0
 80018be:	f002 023f 	and.w	r2, r2, #63	; 0x3f
 80018c2:	fba1 0100 	umull	r0, r1, r1, r0
 80018c6:	f7fe fc7f 	bl	80001c8 <__aeabi_uldivmod>
 80018ca:	4b04      	ldr	r3, [pc, #16]	; (80018dc <HAL_RCC_GetSysClockFreq+0x50>)
 80018cc:	685b      	ldr	r3, [r3, #4]
 80018ce:	f3c3 4301 	ubfx	r3, r3, #16, #2
 80018d2:	3301      	adds	r3, #1
 80018d4:	005b      	lsls	r3, r3, #1
 80018d6:	fbb0 f0f3 	udiv	r0, r0, r3
 80018da:	e7e3      	b.n	80018a4 <HAL_RCC_GetSysClockFreq+0x18>
 80018dc:	40023800 	.word	0x40023800
 80018e0:	00f42400 	.word	0x00f42400
 80018e4:	007a1200 	.word	0x007a1200

080018e8 <HAL_RCC_ClockConfig>:
 80018e8:	e92d 41f0 	stmdb	sp!, {r4, r5, r6, r7, r8, lr}
 80018ec:	460d      	mov	r5, r1
 80018ee:	4604      	mov	r4, r0
 80018f0:	b910      	cbnz	r0, 80018f8 <HAL_RCC_ClockConfig+0x10>
 80018f2:	2001      	movs	r0, #1
 80018f4:	e8bd 81f0 	ldmia.w	sp!, {r4, r5, r6, r7, r8, pc}
 80018f8:	4b43      	ldr	r3, [pc, #268]	; (8001a08 <HAL_RCC_ClockConfig+0x120>)
 80018fa:	681a      	ldr	r2, [r3, #0]
 80018fc:	f002 020f 	and.w	r2, r2, #15
 8001900:	428a      	cmp	r2, r1
 8001902:	d328      	bcc.n	8001956 <HAL_RCC_ClockConfig+0x6e>
 8001904:	6821      	ldr	r1, [r4, #0]
 8001906:	078f      	lsls	r7, r1, #30
 8001908:	d42d      	bmi.n	8001966 <HAL_RCC_ClockConfig+0x7e>
 800190a:	07c8      	lsls	r0, r1, #31
 800190c:	d440      	bmi.n	8001990 <HAL_RCC_ClockConfig+0xa8>
 800190e:	4b3e      	ldr	r3, [pc, #248]	; (8001a08 <HAL_RCC_ClockConfig+0x120>)
 8001910:	681a      	ldr	r2, [r3, #0]
 8001912:	f002 020f 	and.w	r2, r2, #15
 8001916:	42aa      	cmp	r2, r5
 8001918:	d865      	bhi.n	80019e6 <HAL_RCC_ClockConfig+0xfe>
 800191a:	6822      	ldr	r2, [r4, #0]
 800191c:	0751      	lsls	r1, r2, #29
 800191e:	d46b      	bmi.n	80019f8 <HAL_RCC_ClockConfig+0x110>
 8001920:	0713      	lsls	r3, r2, #28
 8001922:	d507      	bpl.n	8001934 <HAL_RCC_ClockConfig+0x4c>
 8001924:	4a39      	ldr	r2, [pc, #228]	; (8001a0c <HAL_RCC_ClockConfig+0x124>)
 8001926:	6921      	ldr	r1, [r4, #16]
 8001928:	6893      	ldr	r3, [r2, #8]
 800192a:	f423 4360 	bic.w	r3, r3, #57344	; 0xe000
 800192e:	ea43 03c1 	orr.w	r3, r3, r1, lsl #3
 8001932:	6093      	str	r3, [r2, #8]
 8001934:	f7ff ffaa 	bl	800188c <HAL_RCC_GetSysClockFreq>
 8001938:	4b34      	ldr	r3, [pc, #208]	; (8001a0c <HAL_RCC_ClockConfig+0x124>)
 800193a:	4a35      	ldr	r2, [pc, #212]	; (8001a10 <HAL_RCC_ClockConfig+0x128>)
 800193c:	689b      	ldr	r3, [r3, #8]
 800193e:	f3c3 1303 	ubfx	r3, r3, #4, #4
 8001942:	5cd3      	ldrb	r3, [r2, r3]
 8001944:	40d8      	lsrs	r0, r3
 8001946:	4b33      	ldr	r3, [pc, #204]	; (8001a14 <HAL_RCC_ClockConfig+0x12c>)
 8001948:	6018      	str	r0, [r3, #0]
 800194a:	4b33      	ldr	r3, [pc, #204]	; (8001a18 <HAL_RCC_ClockConfig+0x130>)
 800194c:	6818      	ldr	r0, [r3, #0]
 800194e:	f7fe ff7b 	bl	8000848 <HAL_InitTick>
 8001952:	2000      	movs	r0, #0
 8001954:	e7ce      	b.n	80018f4 <HAL_RCC_ClockConfig+0xc>
 8001956:	b2ca      	uxtb	r2, r1
 8001958:	701a      	strb	r2, [r3, #0]
 800195a:	681b      	ldr	r3, [r3, #0]
 800195c:	f003 030f 	and.w	r3, r3, #15
 8001960:	428b      	cmp	r3, r1
 8001962:	d1c6      	bne.n	80018f2 <HAL_RCC_ClockConfig+0xa>
 8001964:	e7ce      	b.n	8001904 <HAL_RCC_ClockConfig+0x1c>
 8001966:	4b29      	ldr	r3, [pc, #164]	; (8001a0c <HAL_RCC_ClockConfig+0x124>)
 8001968:	f011 0f04 	tst.w	r1, #4
 800196c:	bf1e      	ittt	ne
 800196e:	689a      	ldrne	r2, [r3, #8]
 8001970:	f442 52e0 	orrne.w	r2, r2, #7168	; 0x1c00
 8001974:	609a      	strne	r2, [r3, #8]
 8001976:	070e      	lsls	r6, r1, #28
 8001978:	bf42      	ittt	mi
 800197a:	689a      	ldrmi	r2, [r3, #8]
 800197c:	f442 4260 	orrmi.w	r2, r2, #57344	; 0xe000
 8001980:	609a      	strmi	r2, [r3, #8]
 8001982:	689a      	ldr	r2, [r3, #8]
 8001984:	68a0      	ldr	r0, [r4, #8]
 8001986:	f022 02f0 	bic.w	r2, r2, #240	; 0xf0
 800198a:	4302      	orrs	r2, r0
 800198c:	609a      	str	r2, [r3, #8]
 800198e:	e7bc      	b.n	800190a <HAL_RCC_ClockConfig+0x22>
 8001990:	6862      	ldr	r2, [r4, #4]
 8001992:	4b1e      	ldr	r3, [pc, #120]	; (8001a0c <HAL_RCC_ClockConfig+0x124>)
 8001994:	2a01      	cmp	r2, #1
 8001996:	d11c      	bne.n	80019d2 <HAL_RCC_ClockConfig+0xea>
 8001998:	681b      	ldr	r3, [r3, #0]
 800199a:	f413 3f00 	tst.w	r3, #131072	; 0x20000
 800199e:	d0a8      	beq.n	80018f2 <HAL_RCC_ClockConfig+0xa>
 80019a0:	4e1a      	ldr	r6, [pc, #104]	; (8001a0c <HAL_RCC_ClockConfig+0x124>)
 80019a2:	68b3      	ldr	r3, [r6, #8]
 80019a4:	f023 0303 	bic.w	r3, r3, #3
 80019a8:	4313      	orrs	r3, r2
 80019aa:	60b3      	str	r3, [r6, #8]
 80019ac:	f7fe ff96 	bl	80008dc <HAL_GetTick>
 80019b0:	f241 3888 	movw	r8, #5000	; 0x1388
 80019b4:	4607      	mov	r7, r0
 80019b6:	68b3      	ldr	r3, [r6, #8]
 80019b8:	6862      	ldr	r2, [r4, #4]
 80019ba:	f003 030c 	and.w	r3, r3, #12
 80019be:	ebb3 0f82 	cmp.w	r3, r2, lsl #2
 80019c2:	d0a4      	beq.n	800190e <HAL_RCC_ClockConfig+0x26>
 80019c4:	f7fe ff8a 	bl	80008dc <HAL_GetTick>
 80019c8:	1bc0      	subs	r0, r0, r7
 80019ca:	4540      	cmp	r0, r8
 80019cc:	d9f3      	bls.n	80019b6 <HAL_RCC_ClockConfig+0xce>
 80019ce:	2003      	movs	r0, #3
 80019d0:	e790      	b.n	80018f4 <HAL_RCC_ClockConfig+0xc>
 80019d2:	1e91      	subs	r1, r2, #2
 80019d4:	2901      	cmp	r1, #1
 80019d6:	681b      	ldr	r3, [r3, #0]
 80019d8:	d802      	bhi.n	80019e0 <HAL_RCC_ClockConfig+0xf8>
 80019da:	f013 7f00 	tst.w	r3, #33554432	; 0x2000000
 80019de:	e7de      	b.n	800199e <HAL_RCC_ClockConfig+0xb6>
 80019e0:	f013 0f02 	tst.w	r3, #2
 80019e4:	e7db      	b.n	800199e <HAL_RCC_ClockConfig+0xb6>
 80019e6:	b2ea      	uxtb	r2, r5
 80019e8:	701a      	strb	r2, [r3, #0]
 80019ea:	681b      	ldr	r3, [r3, #0]
 80019ec:	f003 030f 	and.w	r3, r3, #15
 80019f0:	42ab      	cmp	r3, r5
 80019f2:	f47f af7e 	bne.w	80018f2 <HAL_RCC_ClockConfig+0xa>
 80019f6:	e790      	b.n	800191a <HAL_RCC_ClockConfig+0x32>
 80019f8:	4904      	ldr	r1, [pc, #16]	; (8001a0c <HAL_RCC_ClockConfig+0x124>)
 80019fa:	68e0      	ldr	r0, [r4, #12]
 80019fc:	688b      	ldr	r3, [r1, #8]
 80019fe:	f423 53e0 	bic.w	r3, r3, #7168	; 0x1c00
 8001a02:	4303      	orrs	r3, r0
 8001a04:	608b      	str	r3, [r1, #8]
 8001a06:	e78b      	b.n	8001920 <HAL_RCC_ClockConfig+0x38>
 8001a08:	40023c00 	.word	0x40023c00
 8001a0c:	40023800 	.word	0x40023800
 8001a10:	080036f0 	.word	0x080036f0
 8001a14:	20000000 	.word	0x20000000
 8001a18:	20000008 	.word	0x20000008

08001a1c <HAL_RCC_GetHCLKFreq>:
 8001a1c:	4b01      	ldr	r3, [pc, #4]	; (8001a24 <HAL_RCC_GetHCLKFreq+0x8>)
 8001a1e:	6818      	ldr	r0, [r3, #0]
 8001a20:	4770      	bx	lr
 8001a22:	bf00      	nop
 8001a24:	20000000 	.word	0x20000000

08001a28 <HAL_RCC_GetPCLK1Freq>:
 8001a28:	4b04      	ldr	r3, [pc, #16]	; (8001a3c <HAL_RCC_GetPCLK1Freq+0x14>)
 8001a2a:	4a05      	ldr	r2, [pc, #20]	; (8001a40 <HAL_RCC_GetPCLK1Freq+0x18>)
 8001a2c:	689b      	ldr	r3, [r3, #8]
 8001a2e:	f3c3 2382 	ubfx	r3, r3, #10, #3
 8001a32:	5cd3      	ldrb	r3, [r2, r3]
 8001a34:	4a03      	ldr	r2, [pc, #12]	; (8001a44 <HAL_RCC_GetPCLK1Freq+0x1c>)
 8001a36:	6810      	ldr	r0, [r2, #0]
 8001a38:	40d8      	lsrs	r0, r3
 8001a3a:	4770      	bx	lr
 8001a3c:	40023800 	.word	0x40023800
 8001a40:	08003700 	.word	0x08003700
 8001a44:	20000000 	.word	0x20000000

08001a48 <HAL_RCC_GetPCLK2Freq>:
 8001a48:	4b04      	ldr	r3, [pc, #16]	; (8001a5c <HAL_RCC_GetPCLK2Freq+0x14>)
 8001a4a:	4a05      	ldr	r2, [pc, #20]	; (8001a60 <HAL_RCC_GetPCLK2Freq+0x18>)
 8001a4c:	689b      	ldr	r3, [r3, #8]
 8001a4e:	f3c3 3342 	ubfx	r3, r3, #13, #3
 8001a52:	5cd3      	ldrb	r3, [r2, r3]
 8001a54:	4a03      	ldr	r2, [pc, #12]	; (8001a64 <HAL_RCC_GetPCLK2Freq+0x1c>)
 8001a56:	6810      	ldr	r0, [r2, #0]
 8001a58:	40d8      	lsrs	r0, r3
 8001a5a:	4770      	bx	lr
 8001a5c:	40023800 	.word	0x40023800
 8001a60:	08003700 	.word	0x08003700
 8001a64:	20000000 	.word	0x20000000

08001a68 <UART_SetConfig>:
 8001a68:	6803      	ldr	r3, [r0, #0]
 8001a6a:	68c1      	ldr	r1, [r0, #12]
 8001a6c:	691a      	ldr	r2, [r3, #16]
 8001a6e:	b570      	push	{r4, r5, r6, lr}
 8001a70:	f422 5240 	bic.w	r2, r2, #12288	; 0x3000
 8001a74:	4604      	mov	r4, r0
 8001a76:	430a      	orrs	r2, r1
 8001a78:	611a      	str	r2, [r3, #16]
 8001a7a:	6925      	ldr	r5, [r4, #16]
 8001a7c:	68a2      	ldr	r2, [r4, #8]
 8001a7e:	68d9      	ldr	r1, [r3, #12]
 8001a80:	69c0      	ldr	r0, [r0, #28]
 8001a82:	432a      	orrs	r2, r5
 8001a84:	6965      	ldr	r5, [r4, #20]
 8001a86:	f421 4116 	bic.w	r1, r1, #38400	; 0x9600
 8001a8a:	432a      	orrs	r2, r5
 8001a8c:	f021 010c 	bic.w	r1, r1, #12
 8001a90:	4302      	orrs	r2, r0
 8001a92:	430a      	orrs	r2, r1
 8001a94:	60da      	str	r2, [r3, #12]
 8001a96:	695a      	ldr	r2, [r3, #20]
 8001a98:	69a1      	ldr	r1, [r4, #24]
 8001a9a:	f422 7240 	bic.w	r2, r2, #768	; 0x300
 8001a9e:	430a      	orrs	r2, r1
 8001aa0:	f5b0 4f00 	cmp.w	r0, #32768	; 0x8000
 8001aa4:	615a      	str	r2, [r3, #20]
 8001aa6:	4a26      	ldr	r2, [pc, #152]	; (8001b40 <UART_SetConfig+0xd8>)
 8001aa8:	d129      	bne.n	8001afe <UART_SetConfig+0x96>
 8001aaa:	4293      	cmp	r3, r2
 8001aac:	d003      	beq.n	8001ab6 <UART_SetConfig+0x4e>
 8001aae:	f502 6280 	add.w	r2, r2, #1024	; 0x400
 8001ab2:	4293      	cmp	r3, r2
 8001ab4:	d120      	bne.n	8001af8 <UART_SetConfig+0x90>
 8001ab6:	f7ff ffc7 	bl	8001a48 <HAL_RCC_GetPCLK2Freq>
 8001aba:	6862      	ldr	r2, [r4, #4]
 8001abc:	2600      	movs	r6, #0
 8001abe:	1892      	adds	r2, r2, r2
 8001ac0:	f04f 0119 	mov.w	r1, #25
 8001ac4:	eb46 0306 	adc.w	r3, r6, r6
 8001ac8:	fba0 0101 	umull	r0, r1, r0, r1
 8001acc:	f7fe fb7c 	bl	80001c8 <__aeabi_uldivmod>
 8001ad0:	2164      	movs	r1, #100	; 0x64
 8001ad2:	fbb0 f5f1 	udiv	r5, r0, r1
 8001ad6:	fb01 0315 	mls	r3, r1, r5, r0
 8001ada:	00db      	lsls	r3, r3, #3
 8001adc:	3332      	adds	r3, #50	; 0x32
 8001ade:	fbb3 f3f1 	udiv	r3, r3, r1
 8001ae2:	f003 0207 	and.w	r2, r3, #7
 8001ae6:	005b      	lsls	r3, r3, #1
 8001ae8:	6821      	ldr	r1, [r4, #0]
 8001aea:	eb02 1205 	add.w	r2, r2, r5, lsl #4
 8001aee:	f403 73f8 	and.w	r3, r3, #496	; 0x1f0
 8001af2:	4413      	add	r3, r2
 8001af4:	608b      	str	r3, [r1, #8]
 8001af6:	bd70      	pop	{r4, r5, r6, pc}
 8001af8:	f7ff ff96 	bl	8001a28 <HAL_RCC_GetPCLK1Freq>
 8001afc:	e7dd      	b.n	8001aba <UART_SetConfig+0x52>
 8001afe:	4293      	cmp	r3, r2
 8001b00:	d002      	beq.n	8001b08 <UART_SetConfig+0xa0>
 8001b02:	4a10      	ldr	r2, [pc, #64]	; (8001b44 <UART_SetConfig+0xdc>)
 8001b04:	4293      	cmp	r3, r2
 8001b06:	d117      	bne.n	8001b38 <UART_SetConfig+0xd0>
 8001b08:	f7ff ff9e 	bl	8001a48 <HAL_RCC_GetPCLK2Freq>
 8001b0c:	6863      	ldr	r3, [r4, #4]
 8001b0e:	2119      	movs	r1, #25
 8001b10:	009a      	lsls	r2, r3, #2
 8001b12:	fba0 0101 	umull	r0, r1, r0, r1
 8001b16:	0f9b      	lsrs	r3, r3, #30
 8001b18:	f7fe fb56 	bl	80001c8 <__aeabi_uldivmod>
 8001b1c:	2264      	movs	r2, #100	; 0x64
 8001b1e:	fbb0 f1f2 	udiv	r1, r0, r2
 8001b22:	fb02 0311 	mls	r3, r2, r1, r0
 8001b26:	6824      	ldr	r4, [r4, #0]
 8001b28:	011b      	lsls	r3, r3, #4
 8001b2a:	3332      	adds	r3, #50	; 0x32
 8001b2c:	fbb3 f3f2 	udiv	r3, r3, r2
 8001b30:	eb03 1301 	add.w	r3, r3, r1, lsl #4
 8001b34:	60a3      	str	r3, [r4, #8]
 8001b36:	e7de      	b.n	8001af6 <UART_SetConfig+0x8e>
 8001b38:	f7ff ff76 	bl	8001a28 <HAL_RCC_GetPCLK1Freq>
 8001b3c:	e7e6      	b.n	8001b0c <UART_SetConfig+0xa4>
 8001b3e:	bf00      	nop
 8001b40:	40011000 	.word	0x40011000
 8001b44:	40011400 	.word	0x40011400

08001b48 <UART_WaitOnFlagUntilTimeout.constprop.3>:
 8001b48:	b5f8      	push	{r3, r4, r5, r6, r7, lr}
 8001b4a:	4604      	mov	r4, r0
 8001b4c:	460e      	mov	r6, r1
 8001b4e:	4617      	mov	r7, r2
 8001b50:	461d      	mov	r5, r3
 8001b52:	6821      	ldr	r1, [r4, #0]
 8001b54:	680b      	ldr	r3, [r1, #0]
 8001b56:	ea36 0303 	bics.w	r3, r6, r3
 8001b5a:	d101      	bne.n	8001b60 <UART_WaitOnFlagUntilTimeout.constprop.3+0x18>
 8001b5c:	2000      	movs	r0, #0
 8001b5e:	e014      	b.n	8001b8a <UART_WaitOnFlagUntilTimeout.constprop.3+0x42>
 8001b60:	1c6b      	adds	r3, r5, #1
 8001b62:	d0f7      	beq.n	8001b54 <UART_WaitOnFlagUntilTimeout.constprop.3+0xc>
 8001b64:	b995      	cbnz	r5, 8001b8c <UART_WaitOnFlagUntilTimeout.constprop.3+0x44>
 8001b66:	6823      	ldr	r3, [r4, #0]
 8001b68:	68da      	ldr	r2, [r3, #12]
 8001b6a:	f422 72d0 	bic.w	r2, r2, #416	; 0x1a0
 8001b6e:	60da      	str	r2, [r3, #12]
 8001b70:	695a      	ldr	r2, [r3, #20]
 8001b72:	f022 0201 	bic.w	r2, r2, #1
 8001b76:	615a      	str	r2, [r3, #20]
 8001b78:	2320      	movs	r3, #32
 8001b7a:	f884 3039 	strb.w	r3, [r4, #57]	; 0x39
 8001b7e:	f884 303a 	strb.w	r3, [r4, #58]	; 0x3a
 8001b82:	2300      	movs	r3, #0
 8001b84:	f884 3038 	strb.w	r3, [r4, #56]	; 0x38
 8001b88:	2003      	movs	r0, #3
 8001b8a:	bdf8      	pop	{r3, r4, r5, r6, r7, pc}
 8001b8c:	f7fe fea6 	bl	80008dc <HAL_GetTick>
 8001b90:	1bc0      	subs	r0, r0, r7
 8001b92:	4285      	cmp	r5, r0
 8001b94:	d2dd      	bcs.n	8001b52 <UART_WaitOnFlagUntilTimeout.constprop.3+0xa>
 8001b96:	e7e6      	b.n	8001b66 <UART_WaitOnFlagUntilTimeout.constprop.3+0x1e>

08001b98 <HAL_UART_Init>:
 8001b98:	b510      	push	{r4, lr}
 8001b9a:	4604      	mov	r4, r0
 8001b9c:	b340      	cbz	r0, 8001bf0 <HAL_UART_Init+0x58>
 8001b9e:	f890 3039 	ldrb.w	r3, [r0, #57]	; 0x39
 8001ba2:	f003 02ff 	and.w	r2, r3, #255	; 0xff
 8001ba6:	b91b      	cbnz	r3, 8001bb0 <HAL_UART_Init+0x18>
 8001ba8:	f880 2038 	strb.w	r2, [r0, #56]	; 0x38
 8001bac:	f7fe fdb4 	bl	8000718 <HAL_UART_MspInit>
 8001bb0:	6822      	ldr	r2, [r4, #0]
 8001bb2:	2324      	movs	r3, #36	; 0x24
 8001bb4:	f884 3039 	strb.w	r3, [r4, #57]	; 0x39
 8001bb8:	68d3      	ldr	r3, [r2, #12]
 8001bba:	f423 5300 	bic.w	r3, r3, #8192	; 0x2000
 8001bbe:	60d3      	str	r3, [r2, #12]
 8001bc0:	4620      	mov	r0, r4
 8001bc2:	f7ff ff51 	bl	8001a68 <UART_SetConfig>
 8001bc6:	6823      	ldr	r3, [r4, #0]
 8001bc8:	691a      	ldr	r2, [r3, #16]
 8001bca:	f422 4290 	bic.w	r2, r2, #18432	; 0x4800
 8001bce:	611a      	str	r2, [r3, #16]
 8001bd0:	695a      	ldr	r2, [r3, #20]
 8001bd2:	f022 022a 	bic.w	r2, r2, #42	; 0x2a
 8001bd6:	615a      	str	r2, [r3, #20]
 8001bd8:	68da      	ldr	r2, [r3, #12]
 8001bda:	f442 5200 	orr.w	r2, r2, #8192	; 0x2000
 8001bde:	60da      	str	r2, [r3, #12]
 8001be0:	2000      	movs	r0, #0
 8001be2:	2320      	movs	r3, #32
 8001be4:	63e0      	str	r0, [r4, #60]	; 0x3c
 8001be6:	f884 3039 	strb.w	r3, [r4, #57]	; 0x39
 8001bea:	f884 303a 	strb.w	r3, [r4, #58]	; 0x3a
 8001bee:	bd10      	pop	{r4, pc}
 8001bf0:	2001      	movs	r0, #1
 8001bf2:	e7fc      	b.n	8001bee <HAL_UART_Init+0x56>

08001bf4 <HAL_UART_Transmit>:
 8001bf4:	e92d 43f8 	stmdb	sp!, {r3, r4, r5, r6, r7, r8, r9, lr}
 8001bf8:	461f      	mov	r7, r3
 8001bfa:	f890 3039 	ldrb.w	r3, [r0, #57]	; 0x39
 8001bfe:	2b20      	cmp	r3, #32
 8001c00:	4604      	mov	r4, r0
 8001c02:	460d      	mov	r5, r1
 8001c04:	4690      	mov	r8, r2
 8001c06:	d14f      	bne.n	8001ca8 <HAL_UART_Transmit+0xb4>
 8001c08:	2900      	cmp	r1, #0
 8001c0a:	d04b      	beq.n	8001ca4 <HAL_UART_Transmit+0xb0>
 8001c0c:	2a00      	cmp	r2, #0
 8001c0e:	d049      	beq.n	8001ca4 <HAL_UART_Transmit+0xb0>
 8001c10:	f890 3038 	ldrb.w	r3, [r0, #56]	; 0x38
 8001c14:	2b01      	cmp	r3, #1
 8001c16:	d047      	beq.n	8001ca8 <HAL_UART_Transmit+0xb4>
 8001c18:	2301      	movs	r3, #1
 8001c1a:	f880 3038 	strb.w	r3, [r0, #56]	; 0x38
 8001c1e:	f04f 0900 	mov.w	r9, #0
 8001c22:	2321      	movs	r3, #33	; 0x21
 8001c24:	f8c0 903c 	str.w	r9, [r0, #60]	; 0x3c
 8001c28:	f880 3039 	strb.w	r3, [r0, #57]	; 0x39
 8001c2c:	f7fe fe56 	bl	80008dc <HAL_GetTick>
 8001c30:	f8a4 8024 	strh.w	r8, [r4, #36]	; 0x24
 8001c34:	4606      	mov	r6, r0
 8001c36:	f8a4 8026 	strh.w	r8, [r4, #38]	; 0x26
 8001c3a:	f884 9038 	strb.w	r9, [r4, #56]	; 0x38
 8001c3e:	8ce3      	ldrh	r3, [r4, #38]	; 0x26
 8001c40:	b29b      	uxth	r3, r3
 8001c42:	b953      	cbnz	r3, 8001c5a <HAL_UART_Transmit+0x66>
 8001c44:	463b      	mov	r3, r7
 8001c46:	4632      	mov	r2, r6
 8001c48:	2140      	movs	r1, #64	; 0x40
 8001c4a:	4620      	mov	r0, r4
 8001c4c:	f7ff ff7c 	bl	8001b48 <UART_WaitOnFlagUntilTimeout.constprop.3>
 8001c50:	b998      	cbnz	r0, 8001c7a <HAL_UART_Transmit+0x86>
 8001c52:	2320      	movs	r3, #32
 8001c54:	f884 3039 	strb.w	r3, [r4, #57]	; 0x39
 8001c58:	e010      	b.n	8001c7c <HAL_UART_Transmit+0x88>
 8001c5a:	8ce3      	ldrh	r3, [r4, #38]	; 0x26
 8001c5c:	3b01      	subs	r3, #1
 8001c5e:	b29b      	uxth	r3, r3
 8001c60:	84e3      	strh	r3, [r4, #38]	; 0x26
 8001c62:	68a3      	ldr	r3, [r4, #8]
 8001c64:	f5b3 5f80 	cmp.w	r3, #4096	; 0x1000
 8001c68:	4632      	mov	r2, r6
 8001c6a:	463b      	mov	r3, r7
 8001c6c:	f04f 0180 	mov.w	r1, #128	; 0x80
 8001c70:	4620      	mov	r0, r4
 8001c72:	d10e      	bne.n	8001c92 <HAL_UART_Transmit+0x9e>
 8001c74:	f7ff ff68 	bl	8001b48 <UART_WaitOnFlagUntilTimeout.constprop.3>
 8001c78:	b110      	cbz	r0, 8001c80 <HAL_UART_Transmit+0x8c>
 8001c7a:	2003      	movs	r0, #3
 8001c7c:	e8bd 83f8 	ldmia.w	sp!, {r3, r4, r5, r6, r7, r8, r9, pc}
 8001c80:	882b      	ldrh	r3, [r5, #0]
 8001c82:	6822      	ldr	r2, [r4, #0]
 8001c84:	f3c3 0308 	ubfx	r3, r3, #0, #9
 8001c88:	6053      	str	r3, [r2, #4]
 8001c8a:	6923      	ldr	r3, [r4, #16]
 8001c8c:	b943      	cbnz	r3, 8001ca0 <HAL_UART_Transmit+0xac>
 8001c8e:	3502      	adds	r5, #2
 8001c90:	e7d5      	b.n	8001c3e <HAL_UART_Transmit+0x4a>
 8001c92:	f7ff ff59 	bl	8001b48 <UART_WaitOnFlagUntilTimeout.constprop.3>
 8001c96:	2800      	cmp	r0, #0
 8001c98:	d1ef      	bne.n	8001c7a <HAL_UART_Transmit+0x86>
 8001c9a:	6823      	ldr	r3, [r4, #0]
 8001c9c:	782a      	ldrb	r2, [r5, #0]
 8001c9e:	605a      	str	r2, [r3, #4]
 8001ca0:	3501      	adds	r5, #1
 8001ca2:	e7cc      	b.n	8001c3e <HAL_UART_Transmit+0x4a>
 8001ca4:	2001      	movs	r0, #1
 8001ca6:	e7e9      	b.n	8001c7c <HAL_UART_Transmit+0x88>
 8001ca8:	2002      	movs	r0, #2
 8001caa:	e7e7      	b.n	8001c7c <HAL_UART_Transmit+0x88>

08001cac <USB_CoreReset>:
 8001cac:	4b0a      	ldr	r3, [pc, #40]	; (8001cd8 <USB_CoreReset+0x2c>)
 8001cae:	3b01      	subs	r3, #1
 8001cb0:	d00f      	beq.n	8001cd2 <USB_CoreReset+0x26>
 8001cb2:	6902      	ldr	r2, [r0, #16]
 8001cb4:	2a00      	cmp	r2, #0
 8001cb6:	dafa      	bge.n	8001cae <USB_CoreReset+0x2>
 8001cb8:	6903      	ldr	r3, [r0, #16]
 8001cba:	4a07      	ldr	r2, [pc, #28]	; (8001cd8 <USB_CoreReset+0x2c>)
 8001cbc:	f043 0301 	orr.w	r3, r3, #1
 8001cc0:	6103      	str	r3, [r0, #16]
 8001cc2:	3a01      	subs	r2, #1
 8001cc4:	d005      	beq.n	8001cd2 <USB_CoreReset+0x26>
 8001cc6:	6903      	ldr	r3, [r0, #16]
 8001cc8:	f013 0301 	ands.w	r3, r3, #1
 8001ccc:	d1f9      	bne.n	8001cc2 <USB_CoreReset+0x16>
 8001cce:	4618      	mov	r0, r3
 8001cd0:	4770      	bx	lr
 8001cd2:	2003      	movs	r0, #3
 8001cd4:	4770      	bx	lr
 8001cd6:	bf00      	nop
 8001cd8:	00030d41 	.word	0x00030d41

08001cdc <USB_CoreInit>:
 8001cdc:	b084      	sub	sp, #16
 8001cde:	b538      	push	{r3, r4, r5, lr}
 8001ce0:	ad05      	add	r5, sp, #20
 8001ce2:	e885 000e 	stmia.w	r5, {r1, r2, r3}
 8001ce6:	9b0a      	ldr	r3, [sp, #40]	; 0x28
 8001ce8:	2b01      	cmp	r3, #1
 8001cea:	4604      	mov	r4, r0
 8001cec:	d125      	bne.n	8001d3a <USB_CoreInit+0x5e>
 8001cee:	6b83      	ldr	r3, [r0, #56]	; 0x38
 8001cf0:	f423 3380 	bic.w	r3, r3, #65536	; 0x10000
 8001cf4:	6383      	str	r3, [r0, #56]	; 0x38
 8001cf6:	68c3      	ldr	r3, [r0, #12]
 8001cf8:	f423 0384 	bic.w	r3, r3, #4325376	; 0x420000
 8001cfc:	f023 0340 	bic.w	r3, r3, #64	; 0x40
 8001d00:	60c3      	str	r3, [r0, #12]
 8001d02:	68c3      	ldr	r3, [r0, #12]
 8001d04:	f423 1340 	bic.w	r3, r3, #3145728	; 0x300000
 8001d08:	60c3      	str	r3, [r0, #12]
 8001d0a:	9b11      	ldr	r3, [sp, #68]	; 0x44
 8001d0c:	2b01      	cmp	r3, #1
 8001d0e:	bf02      	ittt	eq
 8001d10:	68c3      	ldreq	r3, [r0, #12]
 8001d12:	f443 1380 	orreq.w	r3, r3, #1048576	; 0x100000
 8001d16:	60c3      	streq	r3, [r0, #12]
 8001d18:	f7ff ffc8 	bl	8001cac <USB_CoreReset>
 8001d1c:	9b08      	ldr	r3, [sp, #32]
 8001d1e:	2b01      	cmp	r3, #1
 8001d20:	d107      	bne.n	8001d32 <USB_CoreInit+0x56>
 8001d22:	68a3      	ldr	r3, [r4, #8]
 8001d24:	f043 0306 	orr.w	r3, r3, #6
 8001d28:	60a3      	str	r3, [r4, #8]
 8001d2a:	68a3      	ldr	r3, [r4, #8]
 8001d2c:	f043 0320 	orr.w	r3, r3, #32
 8001d30:	60a3      	str	r3, [r4, #8]
 8001d32:	e8bd 4038 	ldmia.w	sp!, {r3, r4, r5, lr}
 8001d36:	b004      	add	sp, #16
 8001d38:	4770      	bx	lr
 8001d3a:	68c3      	ldr	r3, [r0, #12]
 8001d3c:	f043 0340 	orr.w	r3, r3, #64	; 0x40
 8001d40:	60c3      	str	r3, [r0, #12]
 8001d42:	f7ff ffb3 	bl	8001cac <USB_CoreReset>
 8001d46:	9b0e      	ldr	r3, [sp, #56]	; 0x38
 8001d48:	b923      	cbnz	r3, 8001d54 <USB_CoreInit+0x78>
 8001d4a:	6ba3      	ldr	r3, [r4, #56]	; 0x38
 8001d4c:	f443 3380 	orr.w	r3, r3, #65536	; 0x10000
 8001d50:	63a3      	str	r3, [r4, #56]	; 0x38
 8001d52:	e7e3      	b.n	8001d1c <USB_CoreInit+0x40>
 8001d54:	6ba3      	ldr	r3, [r4, #56]	; 0x38
 8001d56:	f423 3380 	bic.w	r3, r3, #65536	; 0x10000
 8001d5a:	e7f9      	b.n	8001d50 <USB_CoreInit+0x74>

08001d5c <USB_SetTurnaroundTime>:
 8001d5c:	2a02      	cmp	r2, #2
 8001d5e:	d158      	bne.n	8001e12 <USB_SetTurnaroundTime+0xb6>
 8001d60:	4b2e      	ldr	r3, [pc, #184]	; (8001e1c <USB_SetTurnaroundTime+0xc0>)
 8001d62:	4a2f      	ldr	r2, [pc, #188]	; (8001e20 <USB_SetTurnaroundTime+0xc4>)
 8001d64:	440b      	add	r3, r1
 8001d66:	4293      	cmp	r3, r2
 8001d68:	d947      	bls.n	8001dfa <USB_SetTurnaroundTime+0x9e>
 8001d6a:	4b2e      	ldr	r3, [pc, #184]	; (8001e24 <USB_SetTurnaroundTime+0xc8>)
 8001d6c:	4a2e      	ldr	r2, [pc, #184]	; (8001e28 <USB_SetTurnaroundTime+0xcc>)
 8001d6e:	440b      	add	r3, r1
 8001d70:	4293      	cmp	r3, r2
 8001d72:	d944      	bls.n	8001dfe <USB_SetTurnaroundTime+0xa2>
 8001d74:	f5a1 0374 	sub.w	r3, r1, #15990784	; 0xf40000
 8001d78:	4a2c      	ldr	r2, [pc, #176]	; (8001e2c <USB_SetTurnaroundTime+0xd0>)
 8001d7a:	f5a3 5310 	sub.w	r3, r3, #9216	; 0x2400
 8001d7e:	4293      	cmp	r3, r2
 8001d80:	d93f      	bls.n	8001e02 <USB_SetTurnaroundTime+0xa6>
 8001d82:	f1a1 7383 	sub.w	r3, r1, #17170432	; 0x1060000
 8001d86:	f502 32c3 	add.w	r2, r2, #99840	; 0x18600
 8001d8a:	f5a3 43e7 	sub.w	r3, r3, #29568	; 0x7380
 8001d8e:	32a0      	adds	r2, #160	; 0xa0
 8001d90:	4293      	cmp	r3, r2
 8001d92:	d938      	bls.n	8001e06 <USB_SetTurnaroundTime+0xaa>
 8001d94:	4b26      	ldr	r3, [pc, #152]	; (8001e30 <USB_SetTurnaroundTime+0xd4>)
 8001d96:	4a27      	ldr	r2, [pc, #156]	; (8001e34 <USB_SetTurnaroundTime+0xd8>)
 8001d98:	440b      	add	r3, r1
 8001d9a:	4293      	cmp	r3, r2
 8001d9c:	d935      	bls.n	8001e0a <USB_SetTurnaroundTime+0xae>
 8001d9e:	4b26      	ldr	r3, [pc, #152]	; (8001e38 <USB_SetTurnaroundTime+0xdc>)
 8001da0:	f502 2292 	add.w	r2, r2, #299008	; 0x49000
 8001da4:	440b      	add	r3, r1
 8001da6:	f502 7278 	add.w	r2, r2, #992	; 0x3e0
 8001daa:	4293      	cmp	r3, r2
 8001dac:	d92f      	bls.n	8001e0e <USB_SetTurnaroundTime+0xb2>
 8001dae:	4b23      	ldr	r3, [pc, #140]	; (8001e3c <USB_SetTurnaroundTime+0xe0>)
 8001db0:	f502 22c3 	add.w	r2, r2, #399360	; 0x61800
 8001db4:	440b      	add	r3, r1
 8001db6:	f502 7220 	add.w	r2, r2, #640	; 0x280
 8001dba:	4293      	cmp	r3, r2
 8001dbc:	d929      	bls.n	8001e12 <USB_SetTurnaroundTime+0xb6>
 8001dbe:	f1a1 73b7 	sub.w	r3, r1, #23986176	; 0x16e0000
 8001dc2:	f502 12b7 	add.w	r2, r2, #1499136	; 0x16e000
 8001dc6:	f5a3 5358 	sub.w	r3, r3, #13824	; 0x3600
 8001dca:	f502 7258 	add.w	r2, r2, #864	; 0x360
 8001dce:	4293      	cmp	r3, r2
 8001dd0:	d921      	bls.n	8001e16 <USB_SetTurnaroundTime+0xba>
 8001dd2:	4b1b      	ldr	r3, [pc, #108]	; (8001e40 <USB_SetTurnaroundTime+0xe4>)
 8001dd4:	f502 2212 	add.w	r2, r2, #598016	; 0x92000
 8001dd8:	440b      	add	r3, r1
 8001dda:	f502 62f8 	add.w	r2, r2, #1984	; 0x7c0
 8001dde:	4293      	cmp	r3, r2
 8001de0:	bf94      	ite	ls
 8001de2:	2307      	movls	r3, #7
 8001de4:	2306      	movhi	r3, #6
 8001de6:	68c2      	ldr	r2, [r0, #12]
 8001de8:	f422 5270 	bic.w	r2, r2, #15360	; 0x3c00
 8001dec:	60c2      	str	r2, [r0, #12]
 8001dee:	68c2      	ldr	r2, [r0, #12]
 8001df0:	ea42 2383 	orr.w	r3, r2, r3, lsl #10
 8001df4:	60c3      	str	r3, [r0, #12]
 8001df6:	2000      	movs	r0, #0
 8001df8:	4770      	bx	lr
 8001dfa:	230f      	movs	r3, #15
 8001dfc:	e7f3      	b.n	8001de6 <USB_SetTurnaroundTime+0x8a>
 8001dfe:	230e      	movs	r3, #14
 8001e00:	e7f1      	b.n	8001de6 <USB_SetTurnaroundTime+0x8a>
 8001e02:	230d      	movs	r3, #13
 8001e04:	e7ef      	b.n	8001de6 <USB_SetTurnaroundTime+0x8a>
 8001e06:	230c      	movs	r3, #12
 8001e08:	e7ed      	b.n	8001de6 <USB_SetTurnaroundTime+0x8a>
 8001e0a:	230b      	movs	r3, #11
 8001e0c:	e7eb      	b.n	8001de6 <USB_SetTurnaroundTime+0x8a>
 8001e0e:	230a      	movs	r3, #10
 8001e10:	e7e9      	b.n	8001de6 <USB_SetTurnaroundTime+0x8a>
 8001e12:	2309      	movs	r3, #9
 8001e14:	e7e7      	b.n	8001de6 <USB_SetTurnaroundTime+0x8a>
 8001e16:	2308      	movs	r3, #8
 8001e18:	e7e5      	b.n	8001de6 <USB_SetTurnaroundTime+0x8a>
 8001e1a:	bf00      	nop
 8001e1c:	ff275340 	.word	0xff275340
 8001e20:	000c34ff 	.word	0x000c34ff
 8001e24:	ff1b1e40 	.word	0xff1b1e40
 8001e28:	000f423f 	.word	0x000f423f
 8001e2c:	00124f7f 	.word	0x00124f7f
 8001e30:	fee5b660 	.word	0xfee5b660
 8001e34:	0016e35f 	.word	0x0016e35f
 8001e38:	feced300 	.word	0xfeced300
 8001e3c:	feb35bc0 	.word	0xfeb35bc0
 8001e40:	fe5954e0 	.word	0xfe5954e0

08001e44 <USB_EnableGlobalInt>:
 8001e44:	6883      	ldr	r3, [r0, #8]
 8001e46:	f043 0301 	orr.w	r3, r3, #1
 8001e4a:	6083      	str	r3, [r0, #8]
 8001e4c:	2000      	movs	r0, #0
 8001e4e:	4770      	bx	lr

08001e50 <USB_DisableGlobalInt>:
 8001e50:	6883      	ldr	r3, [r0, #8]
 8001e52:	f023 0301 	bic.w	r3, r3, #1
 8001e56:	6083      	str	r3, [r0, #8]
 8001e58:	2000      	movs	r0, #0
 8001e5a:	4770      	bx	lr

08001e5c <USB_SetCurrentMode>:
 8001e5c:	b508      	push	{r3, lr}
 8001e5e:	68c3      	ldr	r3, [r0, #12]
 8001e60:	2901      	cmp	r1, #1
 8001e62:	f023 43c0 	bic.w	r3, r3, #1610612736	; 0x60000000
 8001e66:	60c3      	str	r3, [r0, #12]
 8001e68:	d108      	bne.n	8001e7c <USB_SetCurrentMode+0x20>
 8001e6a:	68c3      	ldr	r3, [r0, #12]
 8001e6c:	f043 5300 	orr.w	r3, r3, #536870912	; 0x20000000
 8001e70:	60c3      	str	r3, [r0, #12]
 8001e72:	2032      	movs	r0, #50	; 0x32
 8001e74:	f7fe fd38 	bl	80008e8 <HAL_Delay>
 8001e78:	2000      	movs	r0, #0
 8001e7a:	bd08      	pop	{r3, pc}
 8001e7c:	b919      	cbnz	r1, 8001e86 <USB_SetCurrentMode+0x2a>
 8001e7e:	68c3      	ldr	r3, [r0, #12]
 8001e80:	f043 4380 	orr.w	r3, r3, #1073741824	; 0x40000000
 8001e84:	e7f4      	b.n	8001e70 <USB_SetCurrentMode+0x14>
 8001e86:	2001      	movs	r0, #1
 8001e88:	e7f7      	b.n	8001e7a <USB_SetCurrentMode+0x1e>
	...

08001e8c <USB_FlushTxFifo>:
 8001e8c:	0189      	lsls	r1, r1, #6
 8001e8e:	f041 0120 	orr.w	r1, r1, #32
 8001e92:	4a06      	ldr	r2, [pc, #24]	; (8001eac <USB_FlushTxFifo+0x20>)
 8001e94:	6101      	str	r1, [r0, #16]
 8001e96:	3a01      	subs	r2, #1
 8001e98:	d005      	beq.n	8001ea6 <USB_FlushTxFifo+0x1a>
 8001e9a:	6903      	ldr	r3, [r0, #16]
 8001e9c:	f013 0320 	ands.w	r3, r3, #32
 8001ea0:	d1f9      	bne.n	8001e96 <USB_FlushTxFifo+0xa>
 8001ea2:	4618      	mov	r0, r3
 8001ea4:	4770      	bx	lr
 8001ea6:	2003      	movs	r0, #3
 8001ea8:	4770      	bx	lr
 8001eaa:	bf00      	nop
 8001eac:	00030d41 	.word	0x00030d41

08001eb0 <USB_FlushRxFifo>:
 8001eb0:	2310      	movs	r3, #16
 8001eb2:	4a06      	ldr	r2, [pc, #24]	; (8001ecc <USB_FlushRxFifo+0x1c>)
 8001eb4:	6103      	str	r3, [r0, #16]
 8001eb6:	3a01      	subs	r2, #1
 8001eb8:	d005      	beq.n	8001ec6 <USB_FlushRxFifo+0x16>
 8001eba:	6903      	ldr	r3, [r0, #16]
 8001ebc:	f013 0310 	ands.w	r3, r3, #16
 8001ec0:	d1f9      	bne.n	8001eb6 <USB_FlushRxFifo+0x6>
 8001ec2:	4618      	mov	r0, r3
 8001ec4:	4770      	bx	lr
 8001ec6:	2003      	movs	r0, #3
 8001ec8:	4770      	bx	lr
 8001eca:	bf00      	nop
 8001ecc:	00030d41 	.word	0x00030d41

08001ed0 <USB_SetDevSpeed>:
 8001ed0:	f8d0 3800 	ldr.w	r3, [r0, #2048]	; 0x800
 8001ed4:	4319      	orrs	r1, r3
 8001ed6:	f8c0 1800 	str.w	r1, [r0, #2048]	; 0x800
 8001eda:	2000      	movs	r0, #0
 8001edc:	4770      	bx	lr
	...

08001ee0 <USB_DevInit>:
 8001ee0:	b084      	sub	sp, #16
 8001ee2:	e92d 47f0 	stmdb	sp!, {r4, r5, r6, r7, r8, r9, sl, lr}
 8001ee6:	4604      	mov	r4, r0
 8001ee8:	a809      	add	r0, sp, #36	; 0x24
 8001eea:	e880 000e 	stmia.w	r0, {r1, r2, r3}
 8001eee:	2300      	movs	r3, #0
 8001ef0:	9f0c      	ldr	r7, [sp, #48]	; 0x30
 8001ef2:	9e13      	ldr	r6, [sp, #76]	; 0x4c
 8001ef4:	4688      	mov	r8, r1
 8001ef6:	4619      	mov	r1, r3
 8001ef8:	f103 0240 	add.w	r2, r3, #64	; 0x40
 8001efc:	eb04 0282 	add.w	r2, r4, r2, lsl #2
 8001f00:	3301      	adds	r3, #1
 8001f02:	2b0f      	cmp	r3, #15
 8001f04:	6051      	str	r1, [r2, #4]
 8001f06:	d1f7      	bne.n	8001ef8 <USB_DevInit+0x18>
 8001f08:	2e00      	cmp	r6, #0
 8001f0a:	d173      	bne.n	8001ff4 <USB_DevInit+0x114>
 8001f0c:	6ba3      	ldr	r3, [r4, #56]	; 0x38
 8001f0e:	f443 1300 	orr.w	r3, r3, #2097152	; 0x200000
 8001f12:	63a3      	str	r3, [r4, #56]	; 0x38
 8001f14:	6ba3      	ldr	r3, [r4, #56]	; 0x38
 8001f16:	f423 2300 	bic.w	r3, r3, #524288	; 0x80000
 8001f1a:	63a3      	str	r3, [r4, #56]	; 0x38
 8001f1c:	6ba3      	ldr	r3, [r4, #56]	; 0x38
 8001f1e:	f423 2380 	bic.w	r3, r3, #262144	; 0x40000
 8001f22:	63a3      	str	r3, [r4, #56]	; 0x38
 8001f24:	2300      	movs	r3, #0
 8001f26:	f8c4 3e00 	str.w	r3, [r4, #3584]	; 0xe00
 8001f2a:	f8d4 3800 	ldr.w	r3, [r4, #2048]	; 0x800
 8001f2e:	f8c4 3800 	str.w	r3, [r4, #2048]	; 0x800
 8001f32:	9b0e      	ldr	r3, [sp, #56]	; 0x38
 8001f34:	2b01      	cmp	r3, #1
 8001f36:	f504 6500 	add.w	r5, r4, #2048	; 0x800
 8001f3a:	d165      	bne.n	8002008 <USB_DevInit+0x128>
 8001f3c:	990b      	ldr	r1, [sp, #44]	; 0x2c
 8001f3e:	2900      	cmp	r1, #0
 8001f40:	d160      	bne.n	8002004 <USB_DevInit+0x124>
 8001f42:	4620      	mov	r0, r4
 8001f44:	f7ff ffc4 	bl	8001ed0 <USB_SetDevSpeed>
 8001f48:	2110      	movs	r1, #16
 8001f4a:	4620      	mov	r0, r4
 8001f4c:	f7ff ff9e 	bl	8001e8c <USB_FlushTxFifo>
 8001f50:	4601      	mov	r1, r0
 8001f52:	4620      	mov	r0, r4
 8001f54:	f7ff ffac 	bl	8001eb0 <USB_FlushRxFifo>
 8001f58:	2800      	cmp	r0, #0
 8001f5a:	d157      	bne.n	800200c <USB_DevInit+0x12c>
 8001f5c:	1c08      	adds	r0, r1, #0
 8001f5e:	bf18      	it	ne
 8001f60:	2001      	movne	r0, #1
 8001f62:	2300      	movs	r3, #0
 8001f64:	612b      	str	r3, [r5, #16]
 8001f66:	f504 6210 	add.w	r2, r4, #2304	; 0x900
 8001f6a:	616b      	str	r3, [r5, #20]
 8001f6c:	4619      	mov	r1, r3
 8001f6e:	61eb      	str	r3, [r5, #28]
 8001f70:	f04f 4c90 	mov.w	ip, #1207959552	; 0x48000000
 8001f74:	f04f 6e00 	mov.w	lr, #134217728	; 0x8000000
 8001f78:	f64f 397f 	movw	r9, #64383	; 0xfb7f
 8001f7c:	4543      	cmp	r3, r8
 8001f7e:	d147      	bne.n	8002010 <USB_DevInit+0x130>
 8001f80:	2100      	movs	r1, #0
 8001f82:	f504 6230 	add.w	r2, r4, #2816	; 0xb00
 8001f86:	468c      	mov	ip, r1
 8001f88:	f04f 4e90 	mov.w	lr, #1207959552	; 0x48000000
 8001f8c:	f04f 6800 	mov.w	r8, #134217728	; 0x8000000
 8001f90:	f64f 397f 	movw	r9, #64383	; 0xfb7f
 8001f94:	428b      	cmp	r3, r1
 8001f96:	d14e      	bne.n	8002036 <USB_DevInit+0x156>
 8001f98:	692b      	ldr	r3, [r5, #16]
 8001f9a:	2f01      	cmp	r7, #1
 8001f9c:	f423 7380 	bic.w	r3, r3, #256	; 0x100
 8001fa0:	612b      	str	r3, [r5, #16]
 8001fa2:	d107      	bne.n	8001fb4 <USB_DevInit+0xd4>
 8001fa4:	4b2e      	ldr	r3, [pc, #184]	; (8002060 <USB_DevInit+0x180>)
 8001fa6:	632b      	str	r3, [r5, #48]	; 0x30
 8001fa8:	6b2b      	ldr	r3, [r5, #48]	; 0x30
 8001faa:	f443 3380 	orr.w	r3, r3, #65536	; 0x10000
 8001fae:	f043 0303 	orr.w	r3, r3, #3
 8001fb2:	632b      	str	r3, [r5, #48]	; 0x30
 8001fb4:	2300      	movs	r3, #0
 8001fb6:	61a3      	str	r3, [r4, #24]
 8001fb8:	f06f 4380 	mvn.w	r3, #1073741824	; 0x40000000
 8001fbc:	6163      	str	r3, [r4, #20]
 8001fbe:	b91f      	cbnz	r7, 8001fc8 <USB_DevInit+0xe8>
 8001fc0:	69a3      	ldr	r3, [r4, #24]
 8001fc2:	f043 0310 	orr.w	r3, r3, #16
 8001fc6:	61a3      	str	r3, [r4, #24]
 8001fc8:	69a2      	ldr	r2, [r4, #24]
 8001fca:	4b26      	ldr	r3, [pc, #152]	; (8002064 <USB_DevInit+0x184>)
 8001fcc:	4313      	orrs	r3, r2
 8001fce:	61a3      	str	r3, [r4, #24]
 8001fd0:	9b0f      	ldr	r3, [sp, #60]	; 0x3c
 8001fd2:	b11b      	cbz	r3, 8001fdc <USB_DevInit+0xfc>
 8001fd4:	69a3      	ldr	r3, [r4, #24]
 8001fd6:	f043 0308 	orr.w	r3, r3, #8
 8001fda:	61a3      	str	r3, [r4, #24]
 8001fdc:	2e01      	cmp	r6, #1
 8001fde:	bf01      	itttt	eq
 8001fe0:	69a3      	ldreq	r3, [r4, #24]
 8001fe2:	f043 4380 	orreq.w	r3, r3, #1073741824	; 0x40000000
 8001fe6:	f043 0304 	orreq.w	r3, r3, #4
 8001fea:	61a3      	streq	r3, [r4, #24]
 8001fec:	e8bd 47f0 	ldmia.w	sp!, {r4, r5, r6, r7, r8, r9, sl, lr}
 8001ff0:	b004      	add	sp, #16
 8001ff2:	4770      	bx	lr
 8001ff4:	6823      	ldr	r3, [r4, #0]
 8001ff6:	f423 1300 	bic.w	r3, r3, #2097152	; 0x200000
 8001ffa:	6023      	str	r3, [r4, #0]
 8001ffc:	6ba3      	ldr	r3, [r4, #56]	; 0x38
 8001ffe:	f443 2300 	orr.w	r3, r3, #524288	; 0x80000
 8002002:	e78e      	b.n	8001f22 <USB_DevInit+0x42>
 8002004:	4619      	mov	r1, r3
 8002006:	e79c      	b.n	8001f42 <USB_DevInit+0x62>
 8002008:	2103      	movs	r1, #3
 800200a:	e79a      	b.n	8001f42 <USB_DevInit+0x62>
 800200c:	2001      	movs	r0, #1
 800200e:	e7a8      	b.n	8001f62 <USB_DevInit+0x82>
 8002010:	f8d2 a000 	ldr.w	sl, [r2]
 8002014:	f1ba 0f00 	cmp.w	sl, #0
 8002018:	da0b      	bge.n	8002032 <USB_DevInit+0x152>
 800201a:	b93b      	cbnz	r3, 800202c <USB_DevInit+0x14c>
 800201c:	f8c2 e000 	str.w	lr, [r2]
 8002020:	6111      	str	r1, [r2, #16]
 8002022:	3301      	adds	r3, #1
 8002024:	f8c2 9008 	str.w	r9, [r2, #8]
 8002028:	3220      	adds	r2, #32
 800202a:	e7a7      	b.n	8001f7c <USB_DevInit+0x9c>
 800202c:	f8c2 c000 	str.w	ip, [r2]
 8002030:	e7f6      	b.n	8002020 <USB_DevInit+0x140>
 8002032:	6011      	str	r1, [r2, #0]
 8002034:	e7f4      	b.n	8002020 <USB_DevInit+0x140>
 8002036:	f8d2 a000 	ldr.w	sl, [r2]
 800203a:	f1ba 0f00 	cmp.w	sl, #0
 800203e:	da0c      	bge.n	800205a <USB_DevInit+0x17a>
 8002040:	b941      	cbnz	r1, 8002054 <USB_DevInit+0x174>
 8002042:	f8c2 8000 	str.w	r8, [r2]
 8002046:	f8c2 c010 	str.w	ip, [r2, #16]
 800204a:	3101      	adds	r1, #1
 800204c:	f8c2 9008 	str.w	r9, [r2, #8]
 8002050:	3220      	adds	r2, #32
 8002052:	e79f      	b.n	8001f94 <USB_DevInit+0xb4>
 8002054:	f8c2 e000 	str.w	lr, [r2]
 8002058:	e7f5      	b.n	8002046 <USB_DevInit+0x166>
 800205a:	f8c2 c000 	str.w	ip, [r2]
 800205e:	e7f2      	b.n	8002046 <USB_DevInit+0x166>
 8002060:	00800100 	.word	0x00800100
 8002064:	803c3800 	.word	0x803c3800

08002068 <USB_GetDevSpeed>:
 8002068:	f8d0 3808 	ldr.w	r3, [r0, #2056]	; 0x808
 800206c:	f013 0006 	ands.w	r0, r3, #6
 8002070:	d004      	beq.n	800207c <USB_GetDevSpeed+0x14>
 8002072:	f013 0f02 	tst.w	r3, #2
 8002076:	bf14      	ite	ne
 8002078:	2002      	movne	r0, #2
 800207a:	200f      	moveq	r0, #15
 800207c:	4770      	bx	lr

0800207e <USB_ActivateEndpoint>:
 800207e:	b530      	push	{r4, r5, lr}
 8002080:	780d      	ldrb	r5, [r1, #0]
 8002082:	2401      	movs	r4, #1
 8002084:	f005 030f 	and.w	r3, r5, #15
 8002088:	409c      	lsls	r4, r3
 800208a:	784b      	ldrb	r3, [r1, #1]
 800208c:	f500 6200 	add.w	r2, r0, #2048	; 0x800
 8002090:	2b01      	cmp	r3, #1
 8002092:	eb00 1045 	add.w	r0, r0, r5, lsl #5
 8002096:	69d3      	ldr	r3, [r2, #28]
 8002098:	d118      	bne.n	80020cc <USB_ActivateEndpoint+0x4e>
 800209a:	431c      	orrs	r4, r3
 800209c:	61d4      	str	r4, [r2, #28]
 800209e:	f8d0 3900 	ldr.w	r3, [r0, #2304]	; 0x900
 80020a2:	041a      	lsls	r2, r3, #16
 80020a4:	d410      	bmi.n	80020c8 <USB_ActivateEndpoint+0x4a>
 80020a6:	688b      	ldr	r3, [r1, #8]
 80020a8:	78c9      	ldrb	r1, [r1, #3]
 80020aa:	f8d0 2900 	ldr.w	r2, [r0, #2304]	; 0x900
 80020ae:	f3c3 030a 	ubfx	r3, r3, #0, #11
 80020b2:	f043 5380 	orr.w	r3, r3, #268435456	; 0x10000000
 80020b6:	f443 4300 	orr.w	r3, r3, #32768	; 0x8000
 80020ba:	ea43 4381 	orr.w	r3, r3, r1, lsl #18
 80020be:	ea43 5385 	orr.w	r3, r3, r5, lsl #22
 80020c2:	4313      	orrs	r3, r2
 80020c4:	f8c0 3900 	str.w	r3, [r0, #2304]	; 0x900
 80020c8:	2000      	movs	r0, #0
 80020ca:	bd30      	pop	{r4, r5, pc}
 80020cc:	ea43 4404 	orr.w	r4, r3, r4, lsl #16
 80020d0:	61d4      	str	r4, [r2, #28]
 80020d2:	f8d0 3b00 	ldr.w	r3, [r0, #2816]	; 0xb00
 80020d6:	041b      	lsls	r3, r3, #16
 80020d8:	d4f6      	bmi.n	80020c8 <USB_ActivateEndpoint+0x4a>
 80020da:	688b      	ldr	r3, [r1, #8]
 80020dc:	78c9      	ldrb	r1, [r1, #3]
 80020de:	f8d0 2b00 	ldr.w	r2, [r0, #2816]	; 0xb00
 80020e2:	f3c3 030a 	ubfx	r3, r3, #0, #11
 80020e6:	f043 5380 	orr.w	r3, r3, #268435456	; 0x10000000
 80020ea:	f443 4300 	orr.w	r3, r3, #32768	; 0x8000
 80020ee:	ea43 4381 	orr.w	r3, r3, r1, lsl #18
 80020f2:	4313      	orrs	r3, r2
 80020f4:	f8c0 3b00 	str.w	r3, [r0, #2816]	; 0xb00
 80020f8:	e7e6      	b.n	80020c8 <USB_ActivateEndpoint+0x4a>
	...

080020fc <USB_DeactivateEndpoint>:
 80020fc:	b530      	push	{r4, r5, lr}
 80020fe:	780c      	ldrb	r4, [r1, #0]
 8002100:	7849      	ldrb	r1, [r1, #1]
 8002102:	f500 6200 	add.w	r2, r0, #2048	; 0x800
 8002106:	f004 050f 	and.w	r5, r4, #15
 800210a:	2301      	movs	r3, #1
 800210c:	2901      	cmp	r1, #1
 800210e:	fa03 f305 	lsl.w	r3, r3, r5
 8002112:	eb00 1044 	add.w	r0, r0, r4, lsl #5
 8002116:	6bd1      	ldr	r1, [r2, #60]	; 0x3c
 8002118:	d10d      	bne.n	8002136 <USB_DeactivateEndpoint+0x3a>
 800211a:	43db      	mvns	r3, r3
 800211c:	4019      	ands	r1, r3
 800211e:	63d1      	str	r1, [r2, #60]	; 0x3c
 8002120:	69d1      	ldr	r1, [r2, #28]
 8002122:	400b      	ands	r3, r1
 8002124:	61d3      	str	r3, [r2, #28]
 8002126:	f8d0 2900 	ldr.w	r2, [r0, #2304]	; 0x900
 800212a:	4b0a      	ldr	r3, [pc, #40]	; (8002154 <USB_DeactivateEndpoint+0x58>)
 800212c:	4013      	ands	r3, r2
 800212e:	f8c0 3900 	str.w	r3, [r0, #2304]	; 0x900
 8002132:	2000      	movs	r0, #0
 8002134:	bd30      	pop	{r4, r5, pc}
 8002136:	ea6f 4303 	mvn.w	r3, r3, lsl #16
 800213a:	4019      	ands	r1, r3
 800213c:	63d1      	str	r1, [r2, #60]	; 0x3c
 800213e:	69d1      	ldr	r1, [r2, #28]
 8002140:	400b      	ands	r3, r1
 8002142:	61d3      	str	r3, [r2, #28]
 8002144:	f8d0 2b00 	ldr.w	r2, [r0, #2816]	; 0xb00
 8002148:	4b03      	ldr	r3, [pc, #12]	; (8002158 <USB_DeactivateEndpoint+0x5c>)
 800214a:	4013      	ands	r3, r2
 800214c:	f8c0 3b00 	str.w	r3, [r0, #2816]	; 0xb00
 8002150:	e7ef      	b.n	8002132 <USB_DeactivateEndpoint+0x36>
 8002152:	bf00      	nop
 8002154:	ec337800 	.word	0xec337800
 8002158:	eff37800 	.word	0xeff37800

0800215c <USB_EP0StartXfer>:
 800215c:	784b      	ldrb	r3, [r1, #1]
 800215e:	b5f0      	push	{r4, r5, r6, r7, lr}
 8002160:	780c      	ldrb	r4, [r1, #0]
 8002162:	694d      	ldr	r5, [r1, #20]
 8002164:	4e35      	ldr	r6, [pc, #212]	; (800223c <USB_EP0StartXfer+0xe0>)
 8002166:	4f36      	ldr	r7, [pc, #216]	; (8002240 <USB_EP0StartXfer+0xe4>)
 8002168:	2b01      	cmp	r3, #1
 800216a:	eb00 1444 	add.w	r4, r0, r4, lsl #5
 800216e:	d144      	bne.n	80021fa <USB_EP0StartXfer+0x9e>
 8002170:	f504 6310 	add.w	r3, r4, #2304	; 0x900
 8002174:	b9b5      	cbnz	r5, 80021a4 <USB_EP0StartXfer+0x48>
 8002176:	691d      	ldr	r5, [r3, #16]
 8002178:	402e      	ands	r6, r5
 800217a:	611e      	str	r6, [r3, #16]
 800217c:	691d      	ldr	r5, [r3, #16]
 800217e:	f445 2500 	orr.w	r5, r5, #524288	; 0x80000
 8002182:	611d      	str	r5, [r3, #16]
 8002184:	691d      	ldr	r5, [r3, #16]
 8002186:	402f      	ands	r7, r5
 8002188:	611f      	str	r7, [r3, #16]
 800218a:	2a01      	cmp	r2, #1
 800218c:	d121      	bne.n	80021d2 <USB_EP0StartXfer+0x76>
 800218e:	690a      	ldr	r2, [r1, #16]
 8002190:	b102      	cbz	r2, 8002194 <USB_EP0StartXfer+0x38>
 8002192:	615a      	str	r2, [r3, #20]
 8002194:	f8d4 3900 	ldr.w	r3, [r4, #2304]	; 0x900
 8002198:	f043 4304 	orr.w	r3, r3, #2214592512	; 0x84000000
 800219c:	f8c4 3900 	str.w	r3, [r4, #2304]	; 0x900
 80021a0:	2000      	movs	r0, #0
 80021a2:	bdf0      	pop	{r4, r5, r6, r7, pc}
 80021a4:	f8d3 c010 	ldr.w	ip, [r3, #16]
 80021a8:	ea0c 0707 	and.w	r7, ip, r7
 80021ac:	611f      	str	r7, [r3, #16]
 80021ae:	691f      	ldr	r7, [r3, #16]
 80021b0:	403e      	ands	r6, r7
 80021b2:	611e      	str	r6, [r3, #16]
 80021b4:	688e      	ldr	r6, [r1, #8]
 80021b6:	42ae      	cmp	r6, r5
 80021b8:	691d      	ldr	r5, [r3, #16]
 80021ba:	bf38      	it	cc
 80021bc:	614e      	strcc	r6, [r1, #20]
 80021be:	f445 2500 	orr.w	r5, r5, #524288	; 0x80000
 80021c2:	611d      	str	r5, [r3, #16]
 80021c4:	694d      	ldr	r5, [r1, #20]
 80021c6:	691e      	ldr	r6, [r3, #16]
 80021c8:	f3c5 0512 	ubfx	r5, r5, #0, #19
 80021cc:	4335      	orrs	r5, r6
 80021ce:	611d      	str	r5, [r3, #16]
 80021d0:	e7db      	b.n	800218a <USB_EP0StartXfer+0x2e>
 80021d2:	f8d4 3900 	ldr.w	r3, [r4, #2304]	; 0x900
 80021d6:	f043 4304 	orr.w	r3, r3, #2214592512	; 0x84000000
 80021da:	f8c4 3900 	str.w	r3, [r4, #2304]	; 0x900
 80021de:	694b      	ldr	r3, [r1, #20]
 80021e0:	2b00      	cmp	r3, #0
 80021e2:	d0dd      	beq.n	80021a0 <USB_EP0StartXfer+0x44>
 80021e4:	780b      	ldrb	r3, [r1, #0]
 80021e6:	f8d0 4834 	ldr.w	r4, [r0, #2100]	; 0x834
 80021ea:	f003 020f 	and.w	r2, r3, #15
 80021ee:	2301      	movs	r3, #1
 80021f0:	4093      	lsls	r3, r2
 80021f2:	4323      	orrs	r3, r4
 80021f4:	f8c0 3834 	str.w	r3, [r0, #2100]	; 0x834
 80021f8:	e7d2      	b.n	80021a0 <USB_EP0StartXfer+0x44>
 80021fa:	f504 6330 	add.w	r3, r4, #2816	; 0xb00
 80021fe:	6918      	ldr	r0, [r3, #16]
 8002200:	4038      	ands	r0, r7
 8002202:	6118      	str	r0, [r3, #16]
 8002204:	6918      	ldr	r0, [r3, #16]
 8002206:	4030      	ands	r0, r6
 8002208:	6118      	str	r0, [r3, #16]
 800220a:	6888      	ldr	r0, [r1, #8]
 800220c:	b105      	cbz	r5, 8002210 <USB_EP0StartXfer+0xb4>
 800220e:	6148      	str	r0, [r1, #20]
 8002210:	691d      	ldr	r5, [r3, #16]
 8002212:	f445 2500 	orr.w	r5, r5, #524288	; 0x80000
 8002216:	611d      	str	r5, [r3, #16]
 8002218:	691d      	ldr	r5, [r3, #16]
 800221a:	f3c0 0012 	ubfx	r0, r0, #0, #19
 800221e:	4328      	orrs	r0, r5
 8002220:	2a01      	cmp	r2, #1
 8002222:	6118      	str	r0, [r3, #16]
 8002224:	d102      	bne.n	800222c <USB_EP0StartXfer+0xd0>
 8002226:	68ca      	ldr	r2, [r1, #12]
 8002228:	b102      	cbz	r2, 800222c <USB_EP0StartXfer+0xd0>
 800222a:	615a      	str	r2, [r3, #20]
 800222c:	f8d4 3b00 	ldr.w	r3, [r4, #2816]	; 0xb00
 8002230:	f043 4304 	orr.w	r3, r3, #2214592512	; 0x84000000
 8002234:	f8c4 3b00 	str.w	r3, [r4, #2816]	; 0xb00
 8002238:	e7b2      	b.n	80021a0 <USB_EP0StartXfer+0x44>
 800223a:	bf00      	nop
 800223c:	e007ffff 	.word	0xe007ffff
 8002240:	fff80000 	.word	0xfff80000

08002244 <USB_WritePacket>:
 8002244:	b510      	push	{r4, lr}
 8002246:	f89d 4008 	ldrb.w	r4, [sp, #8]
 800224a:	b94c      	cbnz	r4, 8002260 <USB_WritePacket+0x1c>
 800224c:	3303      	adds	r3, #3
 800224e:	eb00 3002 	add.w	r0, r0, r2, lsl #12
 8002252:	089b      	lsrs	r3, r3, #2
 8002254:	f500 5080 	add.w	r0, r0, #4096	; 0x1000
 8002258:	eb01 0383 	add.w	r3, r1, r3, lsl #2
 800225c:	4299      	cmp	r1, r3
 800225e:	d101      	bne.n	8002264 <USB_WritePacket+0x20>
 8002260:	2000      	movs	r0, #0
 8002262:	bd10      	pop	{r4, pc}
 8002264:	f851 2b04 	ldr.w	r2, [r1], #4
 8002268:	6002      	str	r2, [r0, #0]
 800226a:	e7f7      	b.n	800225c <USB_WritePacket+0x18>

0800226c <USB_EPStartXfer>:
 800226c:	b5f7      	push	{r0, r1, r2, r4, r5, r6, r7, lr}
 800226e:	784d      	ldrb	r5, [r1, #1]
 8002270:	780c      	ldrb	r4, [r1, #0]
 8002272:	694b      	ldr	r3, [r1, #20]
 8002274:	78ce      	ldrb	r6, [r1, #3]
 8002276:	f8df c19c 	ldr.w	ip, [pc, #412]	; 8002414 <USB_EPStartXfer+0x1a8>
 800227a:	f8df e19c 	ldr.w	lr, [pc, #412]	; 8002418 <USB_EPStartXfer+0x1ac>
 800227e:	2d01      	cmp	r5, #1
 8002280:	eb00 1444 	add.w	r4, r0, r4, lsl #5
 8002284:	d17c      	bne.n	8002380 <USB_EPStartXfer+0x114>
 8002286:	f504 6510 	add.w	r5, r4, #2304	; 0x900
 800228a:	692f      	ldr	r7, [r5, #16]
 800228c:	bb3b      	cbnz	r3, 80022de <USB_EPStartXfer+0x72>
 800228e:	ea07 070c 	and.w	r7, r7, ip
 8002292:	612f      	str	r7, [r5, #16]
 8002294:	692f      	ldr	r7, [r5, #16]
 8002296:	f447 2700 	orr.w	r7, r7, #524288	; 0x80000
 800229a:	612f      	str	r7, [r5, #16]
 800229c:	692f      	ldr	r7, [r5, #16]
 800229e:	ea07 070e 	and.w	r7, r7, lr
 80022a2:	612f      	str	r7, [r5, #16]
 80022a4:	2a01      	cmp	r2, #1
 80022a6:	d141      	bne.n	800232c <USB_EPStartXfer+0xc0>
 80022a8:	690b      	ldr	r3, [r1, #16]
 80022aa:	b103      	cbz	r3, 80022ae <USB_EPStartXfer+0x42>
 80022ac:	616b      	str	r3, [r5, #20]
 80022ae:	2e01      	cmp	r6, #1
 80022b0:	d10c      	bne.n	80022cc <USB_EPStartXfer+0x60>
 80022b2:	f8d0 3808 	ldr.w	r3, [r0, #2056]	; 0x808
 80022b6:	f413 7f80 	tst.w	r3, #256	; 0x100
 80022ba:	f8d4 3900 	ldr.w	r3, [r4, #2304]	; 0x900
 80022be:	bf0c      	ite	eq
 80022c0:	f043 5300 	orreq.w	r3, r3, #536870912	; 0x20000000
 80022c4:	f043 5380 	orrne.w	r3, r3, #268435456	; 0x10000000
 80022c8:	f8c4 3900 	str.w	r3, [r4, #2304]	; 0x900
 80022cc:	f8d4 3900 	ldr.w	r3, [r4, #2304]	; 0x900
 80022d0:	f043 4304 	orr.w	r3, r3, #2214592512	; 0x84000000
 80022d4:	f8c4 3900 	str.w	r3, [r4, #2304]	; 0x900
 80022d8:	2000      	movs	r0, #0
 80022da:	b003      	add	sp, #12
 80022dc:	bdf0      	pop	{r4, r5, r6, r7, pc}
 80022de:	ea07 070e 	and.w	r7, r7, lr
 80022e2:	612f      	str	r7, [r5, #16]
 80022e4:	692f      	ldr	r7, [r5, #16]
 80022e6:	ea07 070c 	and.w	r7, r7, ip
 80022ea:	f8d1 c008 	ldr.w	ip, [r1, #8]
 80022ee:	612f      	str	r7, [r5, #16]
 80022f0:	eb0c 0703 	add.w	r7, ip, r3
 80022f4:	3f01      	subs	r7, #1
 80022f6:	fbb7 fcfc 	udiv	ip, r7, ip
 80022fa:	4f45      	ldr	r7, [pc, #276]	; (8002410 <USB_EPStartXfer+0x1a4>)
 80022fc:	f8d5 e010 	ldr.w	lr, [r5, #16]
 8002300:	ea07 47cc 	and.w	r7, r7, ip, lsl #19
 8002304:	ea47 070e 	orr.w	r7, r7, lr
 8002308:	612f      	str	r7, [r5, #16]
 800230a:	f8d5 c010 	ldr.w	ip, [r5, #16]
 800230e:	f3c3 0712 	ubfx	r7, r3, #0, #19
 8002312:	ea47 070c 	orr.w	r7, r7, ip
 8002316:	2e01      	cmp	r6, #1
 8002318:	612f      	str	r7, [r5, #16]
 800231a:	d1c3      	bne.n	80022a4 <USB_EPStartXfer+0x38>
 800231c:	692f      	ldr	r7, [r5, #16]
 800231e:	f027 47c0 	bic.w	r7, r7, #1610612736	; 0x60000000
 8002322:	612f      	str	r7, [r5, #16]
 8002324:	692f      	ldr	r7, [r5, #16]
 8002326:	f047 5700 	orr.w	r7, r7, #536870912	; 0x20000000
 800232a:	e7ba      	b.n	80022a2 <USB_EPStartXfer+0x36>
 800232c:	f8d4 5900 	ldr.w	r5, [r4, #2304]	; 0x900
 8002330:	2e01      	cmp	r6, #1
 8002332:	f045 4504 	orr.w	r5, r5, #2214592512	; 0x84000000
 8002336:	f8c4 5900 	str.w	r5, [r4, #2304]	; 0x900
 800233a:	d00c      	beq.n	8002356 <USB_EPStartXfer+0xea>
 800233c:	2b00      	cmp	r3, #0
 800233e:	d0cb      	beq.n	80022d8 <USB_EPStartXfer+0x6c>
 8002340:	780b      	ldrb	r3, [r1, #0]
 8002342:	f8d0 4834 	ldr.w	r4, [r0, #2100]	; 0x834
 8002346:	f003 020f 	and.w	r2, r3, #15
 800234a:	2301      	movs	r3, #1
 800234c:	4093      	lsls	r3, r2
 800234e:	4323      	orrs	r3, r4
 8002350:	f8c0 3834 	str.w	r3, [r0, #2100]	; 0x834
 8002354:	e7c0      	b.n	80022d8 <USB_EPStartXfer+0x6c>
 8002356:	f8d0 5808 	ldr.w	r5, [r0, #2056]	; 0x808
 800235a:	f415 7f80 	tst.w	r5, #256	; 0x100
 800235e:	f8d4 5900 	ldr.w	r5, [r4, #2304]	; 0x900
 8002362:	bf0c      	ite	eq
 8002364:	f045 5500 	orreq.w	r5, r5, #536870912	; 0x20000000
 8002368:	f045 5580 	orrne.w	r5, r5, #268435456	; 0x10000000
 800236c:	f8c4 5900 	str.w	r5, [r4, #2304]	; 0x900
 8002370:	780c      	ldrb	r4, [r1, #0]
 8002372:	9200      	str	r2, [sp, #0]
 8002374:	b29b      	uxth	r3, r3
 8002376:	4622      	mov	r2, r4
 8002378:	68c9      	ldr	r1, [r1, #12]
 800237a:	f7ff ff63 	bl	8002244 <USB_WritePacket>
 800237e:	e7ab      	b.n	80022d8 <USB_EPStartXfer+0x6c>
 8002380:	f504 6730 	add.w	r7, r4, #2816	; 0xb00
 8002384:	693d      	ldr	r5, [r7, #16]
 8002386:	ea05 050e 	and.w	r5, r5, lr
 800238a:	613d      	str	r5, [r7, #16]
 800238c:	693d      	ldr	r5, [r7, #16]
 800238e:	ea05 050c 	and.w	r5, r5, ip
 8002392:	613d      	str	r5, [r7, #16]
 8002394:	688d      	ldr	r5, [r1, #8]
 8002396:	bb1b      	cbnz	r3, 80023e0 <USB_EPStartXfer+0x174>
 8002398:	693b      	ldr	r3, [r7, #16]
 800239a:	f3c5 0512 	ubfx	r5, r5, #0, #19
 800239e:	431d      	orrs	r5, r3
 80023a0:	613d      	str	r5, [r7, #16]
 80023a2:	693b      	ldr	r3, [r7, #16]
 80023a4:	f443 2300 	orr.w	r3, r3, #524288	; 0x80000
 80023a8:	2a01      	cmp	r2, #1
 80023aa:	613b      	str	r3, [r7, #16]
 80023ac:	d102      	bne.n	80023b4 <USB_EPStartXfer+0x148>
 80023ae:	68cb      	ldr	r3, [r1, #12]
 80023b0:	b103      	cbz	r3, 80023b4 <USB_EPStartXfer+0x148>
 80023b2:	617b      	str	r3, [r7, #20]
 80023b4:	2e01      	cmp	r6, #1
 80023b6:	d10c      	bne.n	80023d2 <USB_EPStartXfer+0x166>
 80023b8:	f8d0 3808 	ldr.w	r3, [r0, #2056]	; 0x808
 80023bc:	f413 7f80 	tst.w	r3, #256	; 0x100
 80023c0:	f8d4 3b00 	ldr.w	r3, [r4, #2816]	; 0xb00
 80023c4:	bf0c      	ite	eq
 80023c6:	f043 5300 	orreq.w	r3, r3, #536870912	; 0x20000000
 80023ca:	f043 5380 	orrne.w	r3, r3, #268435456	; 0x10000000
 80023ce:	f8c4 3b00 	str.w	r3, [r4, #2816]	; 0xb00
 80023d2:	f8d4 3b00 	ldr.w	r3, [r4, #2816]	; 0xb00
 80023d6:	f043 4304 	orr.w	r3, r3, #2214592512	; 0x84000000
 80023da:	f8c4 3b00 	str.w	r3, [r4, #2816]	; 0xb00
 80023de:	e77b      	b.n	80022d8 <USB_EPStartXfer+0x6c>
 80023e0:	f8df c02c 	ldr.w	ip, [pc, #44]	; 8002410 <USB_EPStartXfer+0x1a4>
 80023e4:	f8d7 e010 	ldr.w	lr, [r7, #16]
 80023e8:	442b      	add	r3, r5
 80023ea:	3b01      	subs	r3, #1
 80023ec:	fbb3 f3f5 	udiv	r3, r3, r5
 80023f0:	ea0c 4cc3 	and.w	ip, ip, r3, lsl #19
 80023f4:	ea4c 0c0e 	orr.w	ip, ip, lr
 80023f8:	f8c7 c010 	str.w	ip, [r7, #16]
 80023fc:	b29b      	uxth	r3, r3
 80023fe:	f8d7 c010 	ldr.w	ip, [r7, #16]
 8002402:	436b      	muls	r3, r5
 8002404:	f3c3 0312 	ubfx	r3, r3, #0, #19
 8002408:	ea43 030c 	orr.w	r3, r3, ip
 800240c:	e7cc      	b.n	80023a8 <USB_EPStartXfer+0x13c>
 800240e:	bf00      	nop
 8002410:	1ff80000 	.word	0x1ff80000
 8002414:	e007ffff 	.word	0xe007ffff
 8002418:	fff80000 	.word	0xfff80000

0800241c <USB_ReadPacket>:
 800241c:	3203      	adds	r2, #3
 800241e:	0892      	lsrs	r2, r2, #2
 8002420:	eb01 0282 	add.w	r2, r1, r2, lsl #2
 8002424:	f500 5080 	add.w	r0, r0, #4096	; 0x1000
 8002428:	4291      	cmp	r1, r2
 800242a:	d101      	bne.n	8002430 <USB_ReadPacket+0x14>
 800242c:	4608      	mov	r0, r1
 800242e:	4770      	bx	lr
 8002430:	6803      	ldr	r3, [r0, #0]
 8002432:	f841 3b04 	str.w	r3, [r1], #4
 8002436:	e7f7      	b.n	8002428 <USB_ReadPacket+0xc>

08002438 <USB_EPSetStall>:
 8002438:	784a      	ldrb	r2, [r1, #1]
 800243a:	780b      	ldrb	r3, [r1, #0]
 800243c:	2a01      	cmp	r2, #1
 800243e:	eb00 1043 	add.w	r0, r0, r3, lsl #5
 8002442:	d112      	bne.n	800246a <USB_EPSetStall+0x32>
 8002444:	f8d0 2900 	ldr.w	r2, [r0, #2304]	; 0x900
 8002448:	2a00      	cmp	r2, #0
 800244a:	db06      	blt.n	800245a <USB_EPSetStall+0x22>
 800244c:	b12b      	cbz	r3, 800245a <USB_EPSetStall+0x22>
 800244e:	f8d0 3900 	ldr.w	r3, [r0, #2304]	; 0x900
 8002452:	f023 4380 	bic.w	r3, r3, #1073741824	; 0x40000000
 8002456:	f8c0 3900 	str.w	r3, [r0, #2304]	; 0x900
 800245a:	f8d0 3900 	ldr.w	r3, [r0, #2304]	; 0x900
 800245e:	f443 1300 	orr.w	r3, r3, #2097152	; 0x200000
 8002462:	f8c0 3900 	str.w	r3, [r0, #2304]	; 0x900
 8002466:	2000      	movs	r0, #0
 8002468:	4770      	bx	lr
 800246a:	f8d0 2b00 	ldr.w	r2, [r0, #2816]	; 0xb00
 800246e:	2a00      	cmp	r2, #0
 8002470:	db06      	blt.n	8002480 <USB_EPSetStall+0x48>
 8002472:	b12b      	cbz	r3, 8002480 <USB_EPSetStall+0x48>
 8002474:	f8d0 3b00 	ldr.w	r3, [r0, #2816]	; 0xb00
 8002478:	f023 4380 	bic.w	r3, r3, #1073741824	; 0x40000000
 800247c:	f8c0 3b00 	str.w	r3, [r0, #2816]	; 0xb00
 8002480:	f8d0 3b00 	ldr.w	r3, [r0, #2816]	; 0xb00
 8002484:	f443 1300 	orr.w	r3, r3, #2097152	; 0x200000
 8002488:	f8c0 3b00 	str.w	r3, [r0, #2816]	; 0xb00
 800248c:	e7eb      	b.n	8002466 <USB_EPSetStall+0x2e>

0800248e <USB_EPClearStall>:
 800248e:	780b      	ldrb	r3, [r1, #0]
 8002490:	784a      	ldrb	r2, [r1, #1]
 8002492:	eb00 1043 	add.w	r0, r0, r3, lsl #5
 8002496:	78cb      	ldrb	r3, [r1, #3]
 8002498:	2a01      	cmp	r2, #1
 800249a:	f1a3 0302 	sub.w	r3, r3, #2
 800249e:	b2db      	uxtb	r3, r3
 80024a0:	d10f      	bne.n	80024c2 <USB_EPClearStall+0x34>
 80024a2:	f8d0 2900 	ldr.w	r2, [r0, #2304]	; 0x900
 80024a6:	2b01      	cmp	r3, #1
 80024a8:	f422 1200 	bic.w	r2, r2, #2097152	; 0x200000
 80024ac:	f8c0 2900 	str.w	r2, [r0, #2304]	; 0x900
 80024b0:	d805      	bhi.n	80024be <USB_EPClearStall+0x30>
 80024b2:	f8d0 3900 	ldr.w	r3, [r0, #2304]	; 0x900
 80024b6:	f043 5380 	orr.w	r3, r3, #268435456	; 0x10000000
 80024ba:	f8c0 3900 	str.w	r3, [r0, #2304]	; 0x900
 80024be:	2000      	movs	r0, #0
 80024c0:	4770      	bx	lr
 80024c2:	f8d0 2b00 	ldr.w	r2, [r0, #2816]	; 0xb00
 80024c6:	f422 1200 	bic.w	r2, r2, #2097152	; 0x200000
 80024ca:	2b01      	cmp	r3, #1
 80024cc:	f8c0 2b00 	str.w	r2, [r0, #2816]	; 0xb00
 80024d0:	bf9e      	ittt	ls
 80024d2:	f8d0 3b00 	ldrls.w	r3, [r0, #2816]	; 0xb00
 80024d6:	f043 5380 	orrls.w	r3, r3, #268435456	; 0x10000000
 80024da:	f8c0 3b00 	strls.w	r3, [r0, #2816]	; 0xb00
 80024de:	e7ee      	b.n	80024be <USB_EPClearStall+0x30>

080024e0 <USB_SetDevAddress>:
 80024e0:	f8d0 3800 	ldr.w	r3, [r0, #2048]	; 0x800
 80024e4:	f423 63fe 	bic.w	r3, r3, #2032	; 0x7f0
 80024e8:	f8c0 3800 	str.w	r3, [r0, #2048]	; 0x800
 80024ec:	f8d0 3800 	ldr.w	r3, [r0, #2048]	; 0x800
 80024f0:	0109      	lsls	r1, r1, #4
 80024f2:	f401 61fe 	and.w	r1, r1, #2032	; 0x7f0
 80024f6:	4319      	orrs	r1, r3
 80024f8:	f8c0 1800 	str.w	r1, [r0, #2048]	; 0x800
 80024fc:	2000      	movs	r0, #0
 80024fe:	4770      	bx	lr

08002500 <USB_DevConnect>:
 8002500:	b508      	push	{r3, lr}
 8002502:	f8d0 3804 	ldr.w	r3, [r0, #2052]	; 0x804
 8002506:	f023 0302 	bic.w	r3, r3, #2
 800250a:	f8c0 3804 	str.w	r3, [r0, #2052]	; 0x804
 800250e:	2003      	movs	r0, #3
 8002510:	f7fe f9ea 	bl	80008e8 <HAL_Delay>
 8002514:	2000      	movs	r0, #0
 8002516:	bd08      	pop	{r3, pc}

08002518 <USB_DevDisconnect>:
 8002518:	b508      	push	{r3, lr}
 800251a:	f8d0 3804 	ldr.w	r3, [r0, #2052]	; 0x804
 800251e:	f043 0302 	orr.w	r3, r3, #2
 8002522:	f8c0 3804 	str.w	r3, [r0, #2052]	; 0x804
 8002526:	2003      	movs	r0, #3
 8002528:	f7fe f9de 	bl	80008e8 <HAL_Delay>
 800252c:	2000      	movs	r0, #0
 800252e:	bd08      	pop	{r3, pc}

08002530 <USB_ReadInterrupts>:
 8002530:	6942      	ldr	r2, [r0, #20]
 8002532:	6980      	ldr	r0, [r0, #24]
 8002534:	4010      	ands	r0, r2
 8002536:	4770      	bx	lr

08002538 <USB_ReadDevAllOutEpInterrupt>:
 8002538:	f8d0 3818 	ldr.w	r3, [r0, #2072]	; 0x818
 800253c:	f500 6000 	add.w	r0, r0, #2048	; 0x800
 8002540:	69c0      	ldr	r0, [r0, #28]
 8002542:	4018      	ands	r0, r3
 8002544:	0c00      	lsrs	r0, r0, #16
 8002546:	4770      	bx	lr

08002548 <USB_ReadDevAllInEpInterrupt>:
 8002548:	f8d0 3818 	ldr.w	r3, [r0, #2072]	; 0x818
 800254c:	f500 6000 	add.w	r0, r0, #2048	; 0x800
 8002550:	69c0      	ldr	r0, [r0, #28]
 8002552:	4018      	ands	r0, r3
 8002554:	b280      	uxth	r0, r0
 8002556:	4770      	bx	lr

08002558 <USB_ReadDevOutEPInterrupt>:
 8002558:	eb00 1141 	add.w	r1, r0, r1, lsl #5
 800255c:	f500 6000 	add.w	r0, r0, #2048	; 0x800
 8002560:	f8d1 2b08 	ldr.w	r2, [r1, #2824]	; 0xb08
 8002564:	6940      	ldr	r0, [r0, #20]
 8002566:	4010      	ands	r0, r2
 8002568:	4770      	bx	lr

0800256a <USB_ReadDevInEPInterrupt>:
 800256a:	b510      	push	{r4, lr}
 800256c:	f8d0 4810 	ldr.w	r4, [r0, #2064]	; 0x810
 8002570:	f8d0 3834 	ldr.w	r3, [r0, #2100]	; 0x834
 8002574:	eb00 1041 	add.w	r0, r0, r1, lsl #5
 8002578:	f001 010f 	and.w	r1, r1, #15
 800257c:	40cb      	lsrs	r3, r1
 800257e:	f500 6010 	add.w	r0, r0, #2304	; 0x900
 8002582:	01db      	lsls	r3, r3, #7
 8002584:	6880      	ldr	r0, [r0, #8]
 8002586:	b2db      	uxtb	r3, r3
 8002588:	4323      	orrs	r3, r4
 800258a:	4018      	ands	r0, r3
 800258c:	bd10      	pop	{r4, pc}

0800258e <USB_GetMode>:
 800258e:	6940      	ldr	r0, [r0, #20]
 8002590:	f000 0001 	and.w	r0, r0, #1
 8002594:	4770      	bx	lr

08002596 <USB_ActivateSetup>:
 8002596:	f8d0 3900 	ldr.w	r3, [r0, #2304]	; 0x900
 800259a:	f423 63ff 	bic.w	r3, r3, #2040	; 0x7f8
 800259e:	f023 0307 	bic.w	r3, r3, #7
 80025a2:	f8c0 3900 	str.w	r3, [r0, #2304]	; 0x900
 80025a6:	f500 6300 	add.w	r3, r0, #2048	; 0x800
 80025aa:	689a      	ldr	r2, [r3, #8]
 80025ac:	f002 0206 	and.w	r2, r2, #6
 80025b0:	2a04      	cmp	r2, #4
 80025b2:	bf02      	ittt	eq
 80025b4:	f8d0 2900 	ldreq.w	r2, [r0, #2304]	; 0x900
 80025b8:	f042 0203 	orreq.w	r2, r2, #3
 80025bc:	f8c0 2900 	streq.w	r2, [r0, #2304]	; 0x900
 80025c0:	685a      	ldr	r2, [r3, #4]
 80025c2:	f442 7280 	orr.w	r2, r2, #256	; 0x100
 80025c6:	605a      	str	r2, [r3, #4]
 80025c8:	2000      	movs	r0, #0
 80025ca:	4770      	bx	lr

080025cc <USB_EP0_OutStart>:
 80025cc:	b530      	push	{r4, r5, lr}
 80025ce:	6c05      	ldr	r5, [r0, #64]	; 0x40
 80025d0:	4c10      	ldr	r4, [pc, #64]	; (8002614 <USB_EP0_OutStart+0x48>)
 80025d2:	42a5      	cmp	r5, r4
 80025d4:	f500 6330 	add.w	r3, r0, #2816	; 0xb00
 80025d8:	d903      	bls.n	80025e2 <USB_EP0_OutStart+0x16>
 80025da:	f8d0 4b00 	ldr.w	r4, [r0, #2816]	; 0xb00
 80025de:	2c00      	cmp	r4, #0
 80025e0:	db16      	blt.n	8002610 <USB_EP0_OutStart+0x44>
 80025e2:	2400      	movs	r4, #0
 80025e4:	611c      	str	r4, [r3, #16]
 80025e6:	691c      	ldr	r4, [r3, #16]
 80025e8:	f444 2400 	orr.w	r4, r4, #524288	; 0x80000
 80025ec:	611c      	str	r4, [r3, #16]
 80025ee:	691c      	ldr	r4, [r3, #16]
 80025f0:	f044 0418 	orr.w	r4, r4, #24
 80025f4:	611c      	str	r4, [r3, #16]
 80025f6:	691c      	ldr	r4, [r3, #16]
 80025f8:	2901      	cmp	r1, #1
 80025fa:	f044 44c0 	orr.w	r4, r4, #1610612736	; 0x60000000
 80025fe:	611c      	str	r4, [r3, #16]
 8002600:	bf01      	itttt	eq
 8002602:	615a      	streq	r2, [r3, #20]
 8002604:	f8d0 3b00 	ldreq.w	r3, [r0, #2816]	; 0xb00
 8002608:	f043 2380 	orreq.w	r3, r3, #2147516416	; 0x80008000
 800260c:	f8c0 3b00 	streq.w	r3, [r0, #2816]	; 0xb00
 8002610:	2000      	movs	r0, #0
 8002612:	bd30      	pop	{r4, r5, pc}
 8002614:	4f54300a 	.word	0x4f54300a

08002618 <USBD_CDC_EP0_RxReady>:
 8002618:	f8d0 3294 	ldr.w	r3, [r0, #660]	; 0x294
 800261c:	b510      	push	{r4, lr}
 800261e:	b16b      	cbz	r3, 800263c <USBD_CDC_EP0_RxReady+0x24>
 8002620:	f8d0 4290 	ldr.w	r4, [r0, #656]	; 0x290
 8002624:	f894 0200 	ldrb.w	r0, [r4, #512]	; 0x200
 8002628:	28ff      	cmp	r0, #255	; 0xff
 800262a:	d007      	beq.n	800263c <USBD_CDC_EP0_RxReady+0x24>
 800262c:	689b      	ldr	r3, [r3, #8]
 800262e:	f894 2201 	ldrb.w	r2, [r4, #513]	; 0x201
 8002632:	4621      	mov	r1, r4
 8002634:	4798      	blx	r3
 8002636:	23ff      	movs	r3, #255	; 0xff
 8002638:	f884 3200 	strb.w	r3, [r4, #512]	; 0x200
 800263c:	2000      	movs	r0, #0
 800263e:	bd10      	pop	{r4, pc}

08002640 <USBD_CDC_GetFSCfgDesc>:
 8002640:	2343      	movs	r3, #67	; 0x43
 8002642:	8003      	strh	r3, [r0, #0]
 8002644:	4800      	ldr	r0, [pc, #0]	; (8002648 <USBD_CDC_GetFSCfgDesc+0x8>)
 8002646:	4770      	bx	lr
 8002648:	20000044 	.word	0x20000044

0800264c <USBD_CDC_GetHSCfgDesc>:
 800264c:	2343      	movs	r3, #67	; 0x43
 800264e:	8003      	strh	r3, [r0, #0]
 8002650:	4800      	ldr	r0, [pc, #0]	; (8002654 <USBD_CDC_GetHSCfgDesc+0x8>)
 8002652:	4770      	bx	lr
 8002654:	20000088 	.word	0x20000088

08002658 <USBD_CDC_GetOtherSpeedCfgDesc>:
 8002658:	2343      	movs	r3, #67	; 0x43
 800265a:	8003      	strh	r3, [r0, #0]
 800265c:	4800      	ldr	r0, [pc, #0]	; (8002660 <USBD_CDC_GetOtherSpeedCfgDesc+0x8>)
 800265e:	4770      	bx	lr
 8002660:	200000d8 	.word	0x200000d8

08002664 <USBD_CDC_GetDeviceQualifierDescriptor>:
 8002664:	230a      	movs	r3, #10
 8002666:	8003      	strh	r3, [r0, #0]
 8002668:	4800      	ldr	r0, [pc, #0]	; (800266c <USBD_CDC_GetDeviceQualifierDescriptor+0x8>)
 800266a:	4770      	bx	lr
 800266c:	200000cc 	.word	0x200000cc

08002670 <USBD_CDC_DataOut>:
 8002670:	b538      	push	{r3, r4, r5, lr}
 8002672:	4605      	mov	r5, r0
 8002674:	f8d0 4290 	ldr.w	r4, [r0, #656]	; 0x290
 8002678:	f000 ff16 	bl	80034a8 <USBD_LL_GetRxDataSize>
 800267c:	f8d5 3290 	ldr.w	r3, [r5, #656]	; 0x290
 8002680:	f8c4 020c 	str.w	r0, [r4, #524]	; 0x20c
 8002684:	b14b      	cbz	r3, 800269a <USBD_CDC_DataOut+0x2a>
 8002686:	f8d5 3294 	ldr.w	r3, [r5, #660]	; 0x294
 800268a:	f8d4 0204 	ldr.w	r0, [r4, #516]	; 0x204
 800268e:	68db      	ldr	r3, [r3, #12]
 8002690:	f504 7103 	add.w	r1, r4, #524	; 0x20c
 8002694:	4798      	blx	r3
 8002696:	2000      	movs	r0, #0
 8002698:	bd38      	pop	{r3, r4, r5, pc}
 800269a:	2002      	movs	r0, #2
 800269c:	e7fc      	b.n	8002698 <USBD_CDC_DataOut+0x28>

0800269e <USBD_CDC_DataIn>:
 800269e:	b5f8      	push	{r3, r4, r5, r6, r7, lr}
 80026a0:	f8d0 6290 	ldr.w	r6, [r0, #656]	; 0x290
 80026a4:	b1d6      	cbz	r6, 80026dc <USBD_CDC_DataIn+0x3e>
 80026a6:	2314      	movs	r3, #20
 80026a8:	fb03 0301 	mla	r3, r3, r1, r0
 80026ac:	69dd      	ldr	r5, [r3, #28]
 80026ae:	b18d      	cbz	r5, 80026d4 <USBD_CDC_DataIn+0x36>
 80026b0:	f8d0 4298 	ldr.w	r4, [r0, #664]	; 0x298
 80026b4:	271c      	movs	r7, #28
 80026b6:	fb07 4201 	mla	r2, r7, r1, r4
 80026ba:	6c52      	ldr	r2, [r2, #68]	; 0x44
 80026bc:	fbb5 f4f2 	udiv	r4, r5, r2
 80026c0:	fb02 5414 	mls	r4, r2, r4, r5
 80026c4:	b934      	cbnz	r4, 80026d4 <USBD_CDC_DataIn+0x36>
 80026c6:	61dc      	str	r4, [r3, #28]
 80026c8:	4622      	mov	r2, r4
 80026ca:	4623      	mov	r3, r4
 80026cc:	f000 fed0 	bl	8003470 <USBD_LL_Transmit>
 80026d0:	4620      	mov	r0, r4
 80026d2:	bdf8      	pop	{r3, r4, r5, r6, r7, pc}
 80026d4:	2000      	movs	r0, #0
 80026d6:	f8c6 0214 	str.w	r0, [r6, #532]	; 0x214
 80026da:	e7fa      	b.n	80026d2 <USBD_CDC_DataIn+0x34>
 80026dc:	2002      	movs	r0, #2
 80026de:	e7f8      	b.n	80026d2 <USBD_CDC_DataIn+0x34>

080026e0 <USBD_CDC_Setup>:
 80026e0:	e92d 43f7 	stmdb	sp!, {r0, r1, r2, r4, r5, r6, r7, r8, r9, lr}
 80026e4:	780a      	ldrb	r2, [r1, #0]
 80026e6:	f8d0 7290 	ldr.w	r7, [r0, #656]	; 0x290
 80026ea:	f04f 0800 	mov.w	r8, #0
 80026ee:	f012 0460 	ands.w	r4, r2, #96	; 0x60
 80026f2:	4605      	mov	r5, r0
 80026f4:	460e      	mov	r6, r1
 80026f6:	f88d 8005 	strb.w	r8, [sp, #5]
 80026fa:	f8ad 8006 	strh.w	r8, [sp, #6]
 80026fe:	d028      	beq.n	8002752 <USBD_CDC_Setup+0x72>
 8002700:	2c20      	cmp	r4, #32
 8002702:	d145      	bne.n	8002790 <USBD_CDC_Setup+0xb0>
 8002704:	88cc      	ldrh	r4, [r1, #6]
 8002706:	784b      	ldrb	r3, [r1, #1]
 8002708:	b1e4      	cbz	r4, 8002744 <USBD_CDC_Setup+0x64>
 800270a:	0612      	lsls	r2, r2, #24
 800270c:	d511      	bpl.n	8002732 <USBD_CDC_Setup+0x52>
 800270e:	f8d0 2294 	ldr.w	r2, [r0, #660]	; 0x294
 8002712:	4639      	mov	r1, r7
 8002714:	f8d2 9008 	ldr.w	r9, [r2, #8]
 8002718:	4618      	mov	r0, r3
 800271a:	4622      	mov	r2, r4
 800271c:	47c8      	blx	r9
 800271e:	88f2      	ldrh	r2, [r6, #6]
 8002720:	4639      	mov	r1, r7
 8002722:	4628      	mov	r0, r5
 8002724:	f000 fc47 	bl	8002fb6 <USBD_CtlSendData>
 8002728:	4644      	mov	r4, r8
 800272a:	4620      	mov	r0, r4
 800272c:	b003      	add	sp, #12
 800272e:	e8bd 83f0 	ldmia.w	sp!, {r4, r5, r6, r7, r8, r9, pc}
 8002732:	f887 3200 	strb.w	r3, [r7, #512]	; 0x200
 8002736:	f887 4201 	strb.w	r4, [r7, #513]	; 0x201
 800273a:	4622      	mov	r2, r4
 800273c:	4639      	mov	r1, r7
 800273e:	f000 fc4f 	bl	8002fe0 <USBD_CtlPrepareRx>
 8002742:	e7f1      	b.n	8002728 <USBD_CDC_Setup+0x48>
 8002744:	f8d0 2294 	ldr.w	r2, [r0, #660]	; 0x294
 8002748:	4618      	mov	r0, r3
 800274a:	6895      	ldr	r5, [r2, #8]
 800274c:	4622      	mov	r2, r4
 800274e:	47a8      	blx	r5
 8002750:	e7eb      	b.n	800272a <USBD_CDC_Setup+0x4a>
 8002752:	784f      	ldrb	r7, [r1, #1]
 8002754:	2f0a      	cmp	r7, #10
 8002756:	d00d      	beq.n	8002774 <USBD_CDC_Setup+0x94>
 8002758:	2f0b      	cmp	r7, #11
 800275a:	d015      	beq.n	8002788 <USBD_CDC_Setup+0xa8>
 800275c:	b9c7      	cbnz	r7, 8002790 <USBD_CDC_Setup+0xb0>
 800275e:	f890 3274 	ldrb.w	r3, [r0, #628]	; 0x274
 8002762:	2b03      	cmp	r3, #3
 8002764:	d114      	bne.n	8002790 <USBD_CDC_Setup+0xb0>
 8002766:	2202      	movs	r2, #2
 8002768:	f10d 0106 	add.w	r1, sp, #6
 800276c:	f000 fc23 	bl	8002fb6 <USBD_CtlSendData>
 8002770:	463c      	mov	r4, r7
 8002772:	e7da      	b.n	800272a <USBD_CDC_Setup+0x4a>
 8002774:	f890 3274 	ldrb.w	r3, [r0, #628]	; 0x274
 8002778:	2b03      	cmp	r3, #3
 800277a:	d109      	bne.n	8002790 <USBD_CDC_Setup+0xb0>
 800277c:	2201      	movs	r2, #1
 800277e:	f10d 0105 	add.w	r1, sp, #5
 8002782:	f000 fc18 	bl	8002fb6 <USBD_CtlSendData>
 8002786:	e7d0      	b.n	800272a <USBD_CDC_Setup+0x4a>
 8002788:	f890 3274 	ldrb.w	r3, [r0, #628]	; 0x274
 800278c:	2b03      	cmp	r3, #3
 800278e:	d0cc      	beq.n	800272a <USBD_CDC_Setup+0x4a>
 8002790:	4631      	mov	r1, r6
 8002792:	4628      	mov	r0, r5
 8002794:	f000 fbe8 	bl	8002f68 <USBD_CtlError>
 8002798:	2402      	movs	r4, #2
 800279a:	e7c6      	b.n	800272a <USBD_CDC_Setup+0x4a>

0800279c <USBD_CDC_DeInit>:
 800279c:	b538      	push	{r3, r4, r5, lr}
 800279e:	4604      	mov	r4, r0
 80027a0:	2500      	movs	r5, #0
 80027a2:	2181      	movs	r1, #129	; 0x81
 80027a4:	f000 fe18 	bl	80033d8 <USBD_LL_CloseEP>
 80027a8:	2101      	movs	r1, #1
 80027aa:	62e5      	str	r5, [r4, #44]	; 0x2c
 80027ac:	4620      	mov	r0, r4
 80027ae:	f000 fe13 	bl	80033d8 <USBD_LL_CloseEP>
 80027b2:	f8c4 5158 	str.w	r5, [r4, #344]	; 0x158
 80027b6:	2182      	movs	r1, #130	; 0x82
 80027b8:	4620      	mov	r0, r4
 80027ba:	f000 fe0d 	bl	80033d8 <USBD_LL_CloseEP>
 80027be:	f8d4 3290 	ldr.w	r3, [r4, #656]	; 0x290
 80027c2:	6425      	str	r5, [r4, #64]	; 0x40
 80027c4:	b14b      	cbz	r3, 80027da <USBD_CDC_DeInit+0x3e>
 80027c6:	f8d4 3294 	ldr.w	r3, [r4, #660]	; 0x294
 80027ca:	685b      	ldr	r3, [r3, #4]
 80027cc:	4798      	blx	r3
 80027ce:	f8d4 0290 	ldr.w	r0, [r4, #656]	; 0x290
 80027d2:	f000 fe9f 	bl	8003514 <free>
 80027d6:	f8c4 5290 	str.w	r5, [r4, #656]	; 0x290
 80027da:	2000      	movs	r0, #0
 80027dc:	bd38      	pop	{r3, r4, r5, pc}

080027de <USBD_CDC_Init>:
 80027de:	7c03      	ldrb	r3, [r0, #16]
 80027e0:	e92d 41f0 	stmdb	sp!, {r4, r5, r6, r7, r8, lr}
 80027e4:	4604      	mov	r4, r0
 80027e6:	bbcb      	cbnz	r3, 800285c <USBD_CDC_Init+0x7e>
 80027e8:	f44f 7300 	mov.w	r3, #512	; 0x200
 80027ec:	2202      	movs	r2, #2
 80027ee:	2181      	movs	r1, #129	; 0x81
 80027f0:	2501      	movs	r5, #1
 80027f2:	f000 fde1 	bl	80033b8 <USBD_LL_OpenEP>
 80027f6:	62e5      	str	r5, [r4, #44]	; 0x2c
 80027f8:	f44f 7300 	mov.w	r3, #512	; 0x200
 80027fc:	4629      	mov	r1, r5
 80027fe:	2202      	movs	r2, #2
 8002800:	4620      	mov	r0, r4
 8002802:	f000 fdd9 	bl	80033b8 <USBD_LL_OpenEP>
 8002806:	f8c4 5158 	str.w	r5, [r4, #344]	; 0x158
 800280a:	2308      	movs	r3, #8
 800280c:	2203      	movs	r2, #3
 800280e:	2182      	movs	r1, #130	; 0x82
 8002810:	4620      	mov	r0, r4
 8002812:	2501      	movs	r5, #1
 8002814:	f000 fdd0 	bl	80033b8 <USBD_LL_OpenEP>
 8002818:	6425      	str	r5, [r4, #64]	; 0x40
 800281a:	f44f 7007 	mov.w	r0, #540	; 0x21c
 800281e:	f000 fe71 	bl	8003504 <malloc>
 8002822:	4606      	mov	r6, r0
 8002824:	f8c4 0290 	str.w	r0, [r4, #656]	; 0x290
 8002828:	b350      	cbz	r0, 8002880 <USBD_CDC_Init+0xa2>
 800282a:	f8d4 3294 	ldr.w	r3, [r4, #660]	; 0x294
 800282e:	681b      	ldr	r3, [r3, #0]
 8002830:	4798      	blx	r3
 8002832:	f894 8010 	ldrb.w	r8, [r4, #16]
 8002836:	2700      	movs	r7, #0
 8002838:	f8c6 7214 	str.w	r7, [r6, #532]	; 0x214
 800283c:	f8c6 7218 	str.w	r7, [r6, #536]	; 0x218
 8002840:	f1b8 0f00 	cmp.w	r8, #0
 8002844:	d113      	bne.n	800286e <USBD_CDC_Init+0x90>
 8002846:	f44f 7300 	mov.w	r3, #512	; 0x200
 800284a:	f8d6 2204 	ldr.w	r2, [r6, #516]	; 0x204
 800284e:	4629      	mov	r1, r5
 8002850:	4620      	mov	r0, r4
 8002852:	f000 fe1b 	bl	800348c <USBD_LL_PrepareReceive>
 8002856:	4640      	mov	r0, r8
 8002858:	e8bd 81f0 	ldmia.w	sp!, {r4, r5, r6, r7, r8, pc}
 800285c:	2340      	movs	r3, #64	; 0x40
 800285e:	2202      	movs	r2, #2
 8002860:	2181      	movs	r1, #129	; 0x81
 8002862:	2501      	movs	r5, #1
 8002864:	f000 fda8 	bl	80033b8 <USBD_LL_OpenEP>
 8002868:	62e5      	str	r5, [r4, #44]	; 0x2c
 800286a:	2340      	movs	r3, #64	; 0x40
 800286c:	e7c6      	b.n	80027fc <USBD_CDC_Init+0x1e>
 800286e:	2340      	movs	r3, #64	; 0x40
 8002870:	f8d6 2204 	ldr.w	r2, [r6, #516]	; 0x204
 8002874:	4629      	mov	r1, r5
 8002876:	4620      	mov	r0, r4
 8002878:	f000 fe08 	bl	800348c <USBD_LL_PrepareReceive>
 800287c:	4638      	mov	r0, r7
 800287e:	e7eb      	b.n	8002858 <USBD_CDC_Init+0x7a>
 8002880:	4628      	mov	r0, r5
 8002882:	e7e9      	b.n	8002858 <USBD_CDC_Init+0x7a>

08002884 <USBD_CDC_RegisterInterface>:
 8002884:	b119      	cbz	r1, 800288e <USBD_CDC_RegisterInterface+0xa>
 8002886:	f8c0 1294 	str.w	r1, [r0, #660]	; 0x294
 800288a:	2000      	movs	r0, #0
 800288c:	4770      	bx	lr
 800288e:	2002      	movs	r0, #2
 8002890:	4770      	bx	lr

08002892 <USBD_CDC_SetTxBuffer>:
 8002892:	f8d0 3290 	ldr.w	r3, [r0, #656]	; 0x290
 8002896:	2000      	movs	r0, #0
 8002898:	f8c3 1208 	str.w	r1, [r3, #520]	; 0x208
 800289c:	f8c3 2210 	str.w	r2, [r3, #528]	; 0x210
 80028a0:	4770      	bx	lr

080028a2 <USBD_CDC_SetRxBuffer>:
 80028a2:	f8d0 3290 	ldr.w	r3, [r0, #656]	; 0x290
 80028a6:	2000      	movs	r0, #0
 80028a8:	f8c3 1204 	str.w	r1, [r3, #516]	; 0x204
 80028ac:	4770      	bx	lr

080028ae <USBD_CDC_TransmitPacket>:
 80028ae:	f8d0 2290 	ldr.w	r2, [r0, #656]	; 0x290
 80028b2:	b510      	push	{r4, lr}
 80028b4:	b182      	cbz	r2, 80028d8 <USBD_CDC_TransmitPacket+0x2a>
 80028b6:	f8d2 4214 	ldr.w	r4, [r2, #532]	; 0x214
 80028ba:	2301      	movs	r3, #1
 80028bc:	b974      	cbnz	r4, 80028dc <USBD_CDC_TransmitPacket+0x2e>
 80028be:	f8c2 3214 	str.w	r3, [r2, #532]	; 0x214
 80028c2:	f8d2 3210 	ldr.w	r3, [r2, #528]	; 0x210
 80028c6:	6303      	str	r3, [r0, #48]	; 0x30
 80028c8:	f8d2 2208 	ldr.w	r2, [r2, #520]	; 0x208
 80028cc:	b29b      	uxth	r3, r3
 80028ce:	2181      	movs	r1, #129	; 0x81
 80028d0:	f000 fdce 	bl	8003470 <USBD_LL_Transmit>
 80028d4:	4620      	mov	r0, r4
 80028d6:	bd10      	pop	{r4, pc}
 80028d8:	2002      	movs	r0, #2
 80028da:	e7fc      	b.n	80028d6 <USBD_CDC_TransmitPacket+0x28>
 80028dc:	4618      	mov	r0, r3
 80028de:	e7fa      	b.n	80028d6 <USBD_CDC_TransmitPacket+0x28>

080028e0 <USBD_CDC_ReceivePacket>:
 80028e0:	f8d0 2290 	ldr.w	r2, [r0, #656]	; 0x290
 80028e4:	b510      	push	{r4, lr}
 80028e6:	b162      	cbz	r2, 8002902 <USBD_CDC_ReceivePacket+0x22>
 80028e8:	7c04      	ldrb	r4, [r0, #16]
 80028ea:	f8d2 2204 	ldr.w	r2, [r2, #516]	; 0x204
 80028ee:	b934      	cbnz	r4, 80028fe <USBD_CDC_ReceivePacket+0x1e>
 80028f0:	f44f 7300 	mov.w	r3, #512	; 0x200
 80028f4:	2101      	movs	r1, #1
 80028f6:	f000 fdc9 	bl	800348c <USBD_LL_PrepareReceive>
 80028fa:	2000      	movs	r0, #0
 80028fc:	bd10      	pop	{r4, pc}
 80028fe:	2340      	movs	r3, #64	; 0x40
 8002900:	e7f8      	b.n	80028f4 <USBD_CDC_ReceivePacket+0x14>
 8002902:	2002      	movs	r0, #2
 8002904:	e7fa      	b.n	80028fc <USBD_CDC_ReceivePacket+0x1c>

08002906 <USBD_Init>:
 8002906:	b508      	push	{r3, lr}
 8002908:	b180      	cbz	r0, 800292c <USBD_Init+0x26>
 800290a:	f8d0 328c 	ldr.w	r3, [r0, #652]	; 0x28c
 800290e:	b113      	cbz	r3, 8002916 <USBD_Init+0x10>
 8002910:	2300      	movs	r3, #0
 8002912:	f8c0 328c 	str.w	r3, [r0, #652]	; 0x28c
 8002916:	b109      	cbz	r1, 800291c <USBD_Init+0x16>
 8002918:	f8c0 1288 	str.w	r1, [r0, #648]	; 0x288
 800291c:	2301      	movs	r3, #1
 800291e:	f880 3274 	strb.w	r3, [r0, #628]	; 0x274
 8002922:	7002      	strb	r2, [r0, #0]
 8002924:	f000 fd0a 	bl	800333c <USBD_LL_Init>
 8002928:	2000      	movs	r0, #0
 800292a:	bd08      	pop	{r3, pc}
 800292c:	2002      	movs	r0, #2
 800292e:	e7fc      	b.n	800292a <USBD_Init+0x24>

08002930 <USBD_RegisterClass>:
 8002930:	b119      	cbz	r1, 800293a <USBD_RegisterClass+0xa>
 8002932:	f8c0 128c 	str.w	r1, [r0, #652]	; 0x28c
 8002936:	2000      	movs	r0, #0
 8002938:	4770      	bx	lr
 800293a:	2002      	movs	r0, #2
 800293c:	4770      	bx	lr

0800293e <USBD_Start>:
 800293e:	b508      	push	{r3, lr}
 8002940:	f000 fd2c 	bl	800339c <USBD_LL_Start>
 8002944:	2000      	movs	r0, #0
 8002946:	bd08      	pop	{r3, pc}

08002948 <USBD_SetClassConfig>:
 8002948:	b508      	push	{r3, lr}
 800294a:	f8d0 328c 	ldr.w	r3, [r0, #652]	; 0x28c
 800294e:	b90b      	cbnz	r3, 8002954 <USBD_SetClassConfig+0xc>
 8002950:	2002      	movs	r0, #2
 8002952:	bd08      	pop	{r3, pc}
 8002954:	681b      	ldr	r3, [r3, #0]
 8002956:	4798      	blx	r3
 8002958:	2800      	cmp	r0, #0
 800295a:	d0fa      	beq.n	8002952 <USBD_SetClassConfig+0xa>
 800295c:	e7f8      	b.n	8002950 <USBD_SetClassConfig+0x8>

0800295e <USBD_ClrClassConfig>:
 800295e:	b508      	push	{r3, lr}
 8002960:	f8d0 328c 	ldr.w	r3, [r0, #652]	; 0x28c
 8002964:	685b      	ldr	r3, [r3, #4]
 8002966:	4798      	blx	r3
 8002968:	2000      	movs	r0, #0
 800296a:	bd08      	pop	{r3, pc}

0800296c <USBD_LL_SetupStage>:
 800296c:	b538      	push	{r3, r4, r5, lr}
 800296e:	4604      	mov	r4, r0
 8002970:	f500 7520 	add.w	r5, r0, #640	; 0x280
 8002974:	4628      	mov	r0, r5
 8002976:	f000 fae3 	bl	8002f40 <USBD_ParseSetupRequest>
 800297a:	2301      	movs	r3, #1
 800297c:	f894 1280 	ldrb.w	r1, [r4, #640]	; 0x280
 8002980:	f8c4 326c 	str.w	r3, [r4, #620]	; 0x26c
 8002984:	f8b4 3286 	ldrh.w	r3, [r4, #646]	; 0x286
 8002988:	f8c4 3270 	str.w	r3, [r4, #624]	; 0x270
 800298c:	f001 031f 	and.w	r3, r1, #31
 8002990:	2b01      	cmp	r3, #1
 8002992:	d00e      	beq.n	80029b2 <USBD_LL_SetupStage+0x46>
 8002994:	d307      	bcc.n	80029a6 <USBD_LL_SetupStage+0x3a>
 8002996:	2b02      	cmp	r3, #2
 8002998:	d010      	beq.n	80029bc <USBD_LL_SetupStage+0x50>
 800299a:	f001 0180 	and.w	r1, r1, #128	; 0x80
 800299e:	4620      	mov	r0, r4
 80029a0:	f000 fd28 	bl	80033f4 <USBD_LL_StallEP>
 80029a4:	e003      	b.n	80029ae <USBD_LL_SetupStage+0x42>
 80029a6:	4629      	mov	r1, r5
 80029a8:	4620      	mov	r0, r4
 80029aa:	f000 f903 	bl	8002bb4 <USBD_StdDevReq>
 80029ae:	2000      	movs	r0, #0
 80029b0:	bd38      	pop	{r3, r4, r5, pc}
 80029b2:	4629      	mov	r1, r5
 80029b4:	4620      	mov	r0, r4
 80029b6:	f000 fa17 	bl	8002de8 <USBD_StdItfReq>
 80029ba:	e7f8      	b.n	80029ae <USBD_LL_SetupStage+0x42>
 80029bc:	4629      	mov	r1, r5
 80029be:	4620      	mov	r0, r4
 80029c0:	f000 fa37 	bl	8002e32 <USBD_StdEPReq>
 80029c4:	e7f3      	b.n	80029ae <USBD_LL_SetupStage+0x42>

080029c6 <USBD_LL_DataOutStage>:
 80029c6:	b570      	push	{r4, r5, r6, lr}
 80029c8:	4605      	mov	r5, r0
 80029ca:	4616      	mov	r6, r2
 80029cc:	bb49      	cbnz	r1, 8002a22 <USBD_LL_DataOutStage+0x5c>
 80029ce:	f8d0 326c 	ldr.w	r3, [r0, #620]	; 0x26c
 80029d2:	2b03      	cmp	r3, #3
 80029d4:	d11e      	bne.n	8002a14 <USBD_LL_DataOutStage+0x4e>
 80029d6:	f8d0 314c 	ldr.w	r3, [r0, #332]	; 0x14c
 80029da:	f8d0 2150 	ldr.w	r2, [r0, #336]	; 0x150
 80029de:	4293      	cmp	r3, r2
 80029e0:	d90b      	bls.n	80029fa <USBD_LL_DataOutStage+0x34>
 80029e2:	1a9b      	subs	r3, r3, r2
 80029e4:	429a      	cmp	r2, r3
 80029e6:	f8c0 314c 	str.w	r3, [r0, #332]	; 0x14c
 80029ea:	bf8c      	ite	hi
 80029ec:	b29a      	uxthhi	r2, r3
 80029ee:	b292      	uxthls	r2, r2
 80029f0:	4631      	mov	r1, r6
 80029f2:	f000 fb04 	bl	8002ffe <USBD_CtlContinueRx>
 80029f6:	2000      	movs	r0, #0
 80029f8:	bd70      	pop	{r4, r5, r6, pc}
 80029fa:	f8d0 328c 	ldr.w	r3, [r0, #652]	; 0x28c
 80029fe:	691b      	ldr	r3, [r3, #16]
 8002a00:	b123      	cbz	r3, 8002a0c <USBD_LL_DataOutStage+0x46>
 8002a02:	f890 2274 	ldrb.w	r2, [r0, #628]	; 0x274
 8002a06:	2a03      	cmp	r2, #3
 8002a08:	d100      	bne.n	8002a0c <USBD_LL_DataOutStage+0x46>
 8002a0a:	4798      	blx	r3
 8002a0c:	4628      	mov	r0, r5
 8002a0e:	f000 fafe 	bl	800300e <USBD_CtlSendStatus>
 8002a12:	e7f0      	b.n	80029f6 <USBD_LL_DataOutStage+0x30>
 8002a14:	2b05      	cmp	r3, #5
 8002a16:	d1ee      	bne.n	80029f6 <USBD_LL_DataOutStage+0x30>
 8002a18:	f8c5 126c 	str.w	r1, [r5, #620]	; 0x26c
 8002a1c:	f000 fcea 	bl	80033f4 <USBD_LL_StallEP>
 8002a20:	e7e9      	b.n	80029f6 <USBD_LL_DataOutStage+0x30>
 8002a22:	f8d0 328c 	ldr.w	r3, [r0, #652]	; 0x28c
 8002a26:	699b      	ldr	r3, [r3, #24]
 8002a28:	b12b      	cbz	r3, 8002a36 <USBD_LL_DataOutStage+0x70>
 8002a2a:	f890 2274 	ldrb.w	r2, [r0, #628]	; 0x274
 8002a2e:	2a03      	cmp	r2, #3
 8002a30:	d101      	bne.n	8002a36 <USBD_LL_DataOutStage+0x70>
 8002a32:	4798      	blx	r3
 8002a34:	e7df      	b.n	80029f6 <USBD_LL_DataOutStage+0x30>
 8002a36:	2002      	movs	r0, #2
 8002a38:	e7de      	b.n	80029f8 <USBD_LL_DataOutStage+0x32>

08002a3a <USBD_LL_DataInStage>:
 8002a3a:	b570      	push	{r4, r5, r6, lr}
 8002a3c:	4613      	mov	r3, r2
 8002a3e:	4604      	mov	r4, r0
 8002a40:	460e      	mov	r6, r1
 8002a42:	2900      	cmp	r1, #0
 8002a44:	d148      	bne.n	8002ad8 <USBD_LL_DataInStage+0x9e>
 8002a46:	f8d0 226c 	ldr.w	r2, [r0, #620]	; 0x26c
 8002a4a:	2a02      	cmp	r2, #2
 8002a4c:	d13d      	bne.n	8002aca <USBD_LL_DataInStage+0x90>
 8002a4e:	e9d0 5208 	ldrd	r5, r2, [r0, #32]
 8002a52:	4295      	cmp	r5, r2
 8002a54:	d914      	bls.n	8002a80 <USBD_LL_DataInStage+0x46>
 8002a56:	1aaa      	subs	r2, r5, r2
 8002a58:	6202      	str	r2, [r0, #32]
 8002a5a:	4619      	mov	r1, r3
 8002a5c:	b292      	uxth	r2, r2
 8002a5e:	f000 fab7 	bl	8002fd0 <USBD_CtlContinueSendData>
 8002a62:	4633      	mov	r3, r6
 8002a64:	461a      	mov	r2, r3
 8002a66:	4619      	mov	r1, r3
 8002a68:	4620      	mov	r0, r4
 8002a6a:	f000 fd0f 	bl	800348c <USBD_LL_PrepareReceive>
 8002a6e:	f894 3278 	ldrb.w	r3, [r4, #632]	; 0x278
 8002a72:	2b01      	cmp	r3, #1
 8002a74:	f04f 0000 	mov.w	r0, #0
 8002a78:	d101      	bne.n	8002a7e <USBD_LL_DataInStage+0x44>
 8002a7a:	f884 0278 	strb.w	r0, [r4, #632]	; 0x278
 8002a7e:	bd70      	pop	{r4, r5, r6, pc}
 8002a80:	69c3      	ldr	r3, [r0, #28]
 8002a82:	fbb3 f5f2 	udiv	r5, r3, r2
 8002a86:	fb02 3515 	mls	r5, r2, r5, r3
 8002a8a:	b965      	cbnz	r5, 8002aa6 <USBD_LL_DataInStage+0x6c>
 8002a8c:	429a      	cmp	r2, r3
 8002a8e:	d80a      	bhi.n	8002aa6 <USBD_LL_DataInStage+0x6c>
 8002a90:	f8d0 2270 	ldr.w	r2, [r0, #624]	; 0x270
 8002a94:	4293      	cmp	r3, r2
 8002a96:	d206      	bcs.n	8002aa6 <USBD_LL_DataInStage+0x6c>
 8002a98:	462a      	mov	r2, r5
 8002a9a:	f000 fa99 	bl	8002fd0 <USBD_CtlContinueSendData>
 8002a9e:	f8c4 5270 	str.w	r5, [r4, #624]	; 0x270
 8002aa2:	462b      	mov	r3, r5
 8002aa4:	e7de      	b.n	8002a64 <USBD_LL_DataInStage+0x2a>
 8002aa6:	f8d4 328c 	ldr.w	r3, [r4, #652]	; 0x28c
 8002aaa:	68db      	ldr	r3, [r3, #12]
 8002aac:	b12b      	cbz	r3, 8002aba <USBD_LL_DataInStage+0x80>
 8002aae:	f894 2274 	ldrb.w	r2, [r4, #628]	; 0x274
 8002ab2:	2a03      	cmp	r2, #3
 8002ab4:	d101      	bne.n	8002aba <USBD_LL_DataInStage+0x80>
 8002ab6:	4620      	mov	r0, r4
 8002ab8:	4798      	blx	r3
 8002aba:	2180      	movs	r1, #128	; 0x80
 8002abc:	4620      	mov	r0, r4
 8002abe:	f000 fc99 	bl	80033f4 <USBD_LL_StallEP>
 8002ac2:	4620      	mov	r0, r4
 8002ac4:	f000 faae 	bl	8003024 <USBD_CtlReceiveStatus>
 8002ac8:	e7d1      	b.n	8002a6e <USBD_LL_DataInStage+0x34>
 8002aca:	f032 0304 	bics.w	r3, r2, #4
 8002ace:	d1ce      	bne.n	8002a6e <USBD_LL_DataInStage+0x34>
 8002ad0:	2180      	movs	r1, #128	; 0x80
 8002ad2:	f000 fc8f 	bl	80033f4 <USBD_LL_StallEP>
 8002ad6:	e7ca      	b.n	8002a6e <USBD_LL_DataInStage+0x34>
 8002ad8:	f8d0 328c 	ldr.w	r3, [r0, #652]	; 0x28c
 8002adc:	695b      	ldr	r3, [r3, #20]
 8002ade:	b133      	cbz	r3, 8002aee <USBD_LL_DataInStage+0xb4>
 8002ae0:	f890 2274 	ldrb.w	r2, [r0, #628]	; 0x274
 8002ae4:	2a03      	cmp	r2, #3
 8002ae6:	d102      	bne.n	8002aee <USBD_LL_DataInStage+0xb4>
 8002ae8:	4798      	blx	r3
 8002aea:	2000      	movs	r0, #0
 8002aec:	e7c7      	b.n	8002a7e <USBD_LL_DataInStage+0x44>
 8002aee:	2002      	movs	r0, #2
 8002af0:	e7c5      	b.n	8002a7e <USBD_LL_DataInStage+0x44>

08002af2 <USBD_LL_Reset>:
 8002af2:	b570      	push	{r4, r5, r6, lr}
 8002af4:	2200      	movs	r2, #0
 8002af6:	4604      	mov	r4, r0
 8002af8:	4611      	mov	r1, r2
 8002afa:	2501      	movs	r5, #1
 8002afc:	2640      	movs	r6, #64	; 0x40
 8002afe:	2340      	movs	r3, #64	; 0x40
 8002b00:	f000 fc5a 	bl	80033b8 <USBD_LL_OpenEP>
 8002b04:	4633      	mov	r3, r6
 8002b06:	2180      	movs	r1, #128	; 0x80
 8002b08:	f8c4 5144 	str.w	r5, [r4, #324]	; 0x144
 8002b0c:	f8c4 6150 	str.w	r6, [r4, #336]	; 0x150
 8002b10:	2200      	movs	r2, #0
 8002b12:	4620      	mov	r0, r4
 8002b14:	f000 fc50 	bl	80033b8 <USBD_LL_OpenEP>
 8002b18:	f8d4 3290 	ldr.w	r3, [r4, #656]	; 0x290
 8002b1c:	61a5      	str	r5, [r4, #24]
 8002b1e:	2100      	movs	r1, #0
 8002b20:	6266      	str	r6, [r4, #36]	; 0x24
 8002b22:	f884 5274 	strb.w	r5, [r4, #628]	; 0x274
 8002b26:	f8c4 126c 	str.w	r1, [r4, #620]	; 0x26c
 8002b2a:	6061      	str	r1, [r4, #4]
 8002b2c:	f8c4 127c 	str.w	r1, [r4, #636]	; 0x27c
 8002b30:	b123      	cbz	r3, 8002b3c <USBD_LL_Reset+0x4a>
 8002b32:	f8d4 328c 	ldr.w	r3, [r4, #652]	; 0x28c
 8002b36:	4620      	mov	r0, r4
 8002b38:	685b      	ldr	r3, [r3, #4]
 8002b3a:	4798      	blx	r3
 8002b3c:	2000      	movs	r0, #0
 8002b3e:	bd70      	pop	{r4, r5, r6, pc}

08002b40 <USBD_LL_SetSpeed>:
 8002b40:	7401      	strb	r1, [r0, #16]
 8002b42:	2000      	movs	r0, #0
 8002b44:	4770      	bx	lr

08002b46 <USBD_LL_Suspend>:
 8002b46:	f890 3274 	ldrb.w	r3, [r0, #628]	; 0x274
 8002b4a:	f880 3275 	strb.w	r3, [r0, #629]	; 0x275
 8002b4e:	2304      	movs	r3, #4
 8002b50:	f880 3274 	strb.w	r3, [r0, #628]	; 0x274
 8002b54:	2000      	movs	r0, #0
 8002b56:	4770      	bx	lr

08002b58 <USBD_LL_Resume>:
 8002b58:	f890 3275 	ldrb.w	r3, [r0, #629]	; 0x275
 8002b5c:	f880 3274 	strb.w	r3, [r0, #628]	; 0x274
 8002b60:	2000      	movs	r0, #0
 8002b62:	4770      	bx	lr

08002b64 <USBD_LL_SOF>:
 8002b64:	b508      	push	{r3, lr}
 8002b66:	f890 2274 	ldrb.w	r2, [r0, #628]	; 0x274
 8002b6a:	2a03      	cmp	r2, #3
 8002b6c:	d104      	bne.n	8002b78 <USBD_LL_SOF+0x14>
 8002b6e:	f8d0 328c 	ldr.w	r3, [r0, #652]	; 0x28c
 8002b72:	69db      	ldr	r3, [r3, #28]
 8002b74:	b103      	cbz	r3, 8002b78 <USBD_LL_SOF+0x14>
 8002b76:	4798      	blx	r3
 8002b78:	2000      	movs	r0, #0
 8002b7a:	bd08      	pop	{r3, pc}

08002b7c <USBD_LL_IsoINIncomplete>:
 8002b7c:	2000      	movs	r0, #0
 8002b7e:	4770      	bx	lr

08002b80 <USBD_LL_IsoOUTIncomplete>:
 8002b80:	2000      	movs	r0, #0
 8002b82:	4770      	bx	lr

08002b84 <USBD_LL_DevConnected>:
 8002b84:	2000      	movs	r0, #0
 8002b86:	4770      	bx	lr

08002b88 <USBD_LL_DevDisconnected>:
 8002b88:	b508      	push	{r3, lr}
 8002b8a:	2201      	movs	r2, #1
 8002b8c:	f880 2274 	strb.w	r2, [r0, #628]	; 0x274
 8002b90:	f8d0 228c 	ldr.w	r2, [r0, #652]	; 0x28c
 8002b94:	7901      	ldrb	r1, [r0, #4]
 8002b96:	6852      	ldr	r2, [r2, #4]
 8002b98:	4790      	blx	r2
 8002b9a:	2000      	movs	r0, #0
 8002b9c:	bd08      	pop	{r3, pc}

08002b9e <USBD_CtlError.constprop.1>:
 8002b9e:	b510      	push	{r4, lr}
 8002ba0:	2180      	movs	r1, #128	; 0x80
 8002ba2:	4604      	mov	r4, r0
 8002ba4:	f000 fc26 	bl	80033f4 <USBD_LL_StallEP>
 8002ba8:	4620      	mov	r0, r4
 8002baa:	2100      	movs	r1, #0
 8002bac:	e8bd 4010 	ldmia.w	sp!, {r4, lr}
 8002bb0:	f000 bc20 	b.w	80033f4 <USBD_LL_StallEP>

08002bb4 <USBD_StdDevReq>:
 8002bb4:	b537      	push	{r0, r1, r2, r4, r5, lr}
 8002bb6:	780b      	ldrb	r3, [r1, #0]
 8002bb8:	f003 0360 	and.w	r3, r3, #96	; 0x60
 8002bbc:	2b20      	cmp	r3, #32
 8002bbe:	4604      	mov	r4, r0
 8002bc0:	460d      	mov	r5, r1
 8002bc2:	d014      	beq.n	8002bee <USBD_StdDevReq+0x3a>
 8002bc4:	2b40      	cmp	r3, #64	; 0x40
 8002bc6:	d012      	beq.n	8002bee <USBD_StdDevReq+0x3a>
 8002bc8:	2b00      	cmp	r3, #0
 8002bca:	f040 808b 	bne.w	8002ce4 <USBD_StdDevReq+0x130>
 8002bce:	784b      	ldrb	r3, [r1, #1]
 8002bd0:	2b09      	cmp	r3, #9
 8002bd2:	f200 8087 	bhi.w	8002ce4 <USBD_StdDevReq+0x130>
 8002bd6:	e8df f013 	tbh	[pc, r3, lsl #1]
 8002bda:	00df      	.short	0x00df
 8002bdc:	008500f9 	.word	0x008500f9
 8002be0:	008500f2 	.word	0x008500f2
 8002be4:	0013007a 	.word	0x0013007a
 8002be8:	00ca0085 	.word	0x00ca0085
 8002bec:	0098      	.short	0x0098
 8002bee:	f8d4 328c 	ldr.w	r3, [r4, #652]	; 0x28c
 8002bf2:	4629      	mov	r1, r5
 8002bf4:	689b      	ldr	r3, [r3, #8]
 8002bf6:	4620      	mov	r0, r4
 8002bf8:	4798      	blx	r3
 8002bfa:	2000      	movs	r0, #0
 8002bfc:	b003      	add	sp, #12
 8002bfe:	bd30      	pop	{r4, r5, pc}
 8002c00:	884b      	ldrh	r3, [r1, #2]
 8002c02:	0a1a      	lsrs	r2, r3, #8
 8002c04:	3a01      	subs	r2, #1
 8002c06:	2a06      	cmp	r2, #6
 8002c08:	d86c      	bhi.n	8002ce4 <USBD_StdDevReq+0x130>
 8002c0a:	e8df f002 	tbb	[pc, r2]
 8002c0e:	2004      	.short	0x2004
 8002c10:	4d6b6b2d 	.word	0x4d6b6b2d
 8002c14:	56          	.byte	0x56
 8002c15:	00          	.byte	0x00
 8002c16:	f8d0 3288 	ldr.w	r3, [r0, #648]	; 0x288
 8002c1a:	681b      	ldr	r3, [r3, #0]
 8002c1c:	7c20      	ldrb	r0, [r4, #16]
 8002c1e:	f10d 0106 	add.w	r1, sp, #6
 8002c22:	4798      	blx	r3
 8002c24:	f8bd 2006 	ldrh.w	r2, [sp, #6]
 8002c28:	b152      	cbz	r2, 8002c40 <USBD_StdDevReq+0x8c>
 8002c2a:	88eb      	ldrh	r3, [r5, #6]
 8002c2c:	b143      	cbz	r3, 8002c40 <USBD_StdDevReq+0x8c>
 8002c2e:	429a      	cmp	r2, r3
 8002c30:	bf28      	it	cs
 8002c32:	461a      	movcs	r2, r3
 8002c34:	4601      	mov	r1, r0
 8002c36:	4620      	mov	r0, r4
 8002c38:	f8ad 2006 	strh.w	r2, [sp, #6]
 8002c3c:	f000 f9bb 	bl	8002fb6 <USBD_CtlSendData>
 8002c40:	88eb      	ldrh	r3, [r5, #6]
 8002c42:	2b00      	cmp	r3, #0
 8002c44:	d1d9      	bne.n	8002bfa <USBD_StdDevReq+0x46>
 8002c46:	4620      	mov	r0, r4
 8002c48:	f000 f9e1 	bl	800300e <USBD_CtlSendStatus>
 8002c4c:	e7d5      	b.n	8002bfa <USBD_StdDevReq+0x46>
 8002c4e:	7c02      	ldrb	r2, [r0, #16]
 8002c50:	f8d0 328c 	ldr.w	r3, [r0, #652]	; 0x28c
 8002c54:	b932      	cbnz	r2, 8002c64 <USBD_StdDevReq+0xb0>
 8002c56:	6a9b      	ldr	r3, [r3, #40]	; 0x28
 8002c58:	f10d 0006 	add.w	r0, sp, #6
 8002c5c:	4798      	blx	r3
 8002c5e:	2302      	movs	r3, #2
 8002c60:	7043      	strb	r3, [r0, #1]
 8002c62:	e7df      	b.n	8002c24 <USBD_StdDevReq+0x70>
 8002c64:	6adb      	ldr	r3, [r3, #44]	; 0x2c
 8002c66:	e7f7      	b.n	8002c58 <USBD_StdDevReq+0xa4>
 8002c68:	b2db      	uxtb	r3, r3
 8002c6a:	2b05      	cmp	r3, #5
 8002c6c:	d83a      	bhi.n	8002ce4 <USBD_StdDevReq+0x130>
 8002c6e:	e8df f003 	tbb	[pc, r3]
 8002c72:	0703      	.short	0x0703
 8002c74:	17130f0b 	.word	0x17130f0b
 8002c78:	f8d0 3288 	ldr.w	r3, [r0, #648]	; 0x288
 8002c7c:	685b      	ldr	r3, [r3, #4]
 8002c7e:	e7cd      	b.n	8002c1c <USBD_StdDevReq+0x68>
 8002c80:	f8d0 3288 	ldr.w	r3, [r0, #648]	; 0x288
 8002c84:	689b      	ldr	r3, [r3, #8]
 8002c86:	e7c9      	b.n	8002c1c <USBD_StdDevReq+0x68>
 8002c88:	f8d0 3288 	ldr.w	r3, [r0, #648]	; 0x288
 8002c8c:	68db      	ldr	r3, [r3, #12]
 8002c8e:	e7c5      	b.n	8002c1c <USBD_StdDevReq+0x68>
 8002c90:	f8d0 3288 	ldr.w	r3, [r0, #648]	; 0x288
 8002c94:	691b      	ldr	r3, [r3, #16]
 8002c96:	e7c1      	b.n	8002c1c <USBD_StdDevReq+0x68>
 8002c98:	f8d0 3288 	ldr.w	r3, [r0, #648]	; 0x288
 8002c9c:	695b      	ldr	r3, [r3, #20]
 8002c9e:	e7bd      	b.n	8002c1c <USBD_StdDevReq+0x68>
 8002ca0:	f8d0 3288 	ldr.w	r3, [r0, #648]	; 0x288
 8002ca4:	699b      	ldr	r3, [r3, #24]
 8002ca6:	e7b9      	b.n	8002c1c <USBD_StdDevReq+0x68>
 8002ca8:	7c03      	ldrb	r3, [r0, #16]
 8002caa:	b9db      	cbnz	r3, 8002ce4 <USBD_StdDevReq+0x130>
 8002cac:	f8d0 328c 	ldr.w	r3, [r0, #652]	; 0x28c
 8002cb0:	f10d 0006 	add.w	r0, sp, #6
 8002cb4:	6b5b      	ldr	r3, [r3, #52]	; 0x34
 8002cb6:	4798      	blx	r3
 8002cb8:	e7b4      	b.n	8002c24 <USBD_StdDevReq+0x70>
 8002cba:	7c03      	ldrb	r3, [r0, #16]
 8002cbc:	b993      	cbnz	r3, 8002ce4 <USBD_StdDevReq+0x130>
 8002cbe:	f8d0 328c 	ldr.w	r3, [r0, #652]	; 0x28c
 8002cc2:	f10d 0006 	add.w	r0, sp, #6
 8002cc6:	6b1b      	ldr	r3, [r3, #48]	; 0x30
 8002cc8:	4798      	blx	r3
 8002cca:	2307      	movs	r3, #7
 8002ccc:	e7c8      	b.n	8002c60 <USBD_StdDevReq+0xac>
 8002cce:	888b      	ldrh	r3, [r1, #4]
 8002cd0:	b943      	cbnz	r3, 8002ce4 <USBD_StdDevReq+0x130>
 8002cd2:	88cb      	ldrh	r3, [r1, #6]
 8002cd4:	b933      	cbnz	r3, 8002ce4 <USBD_StdDevReq+0x130>
 8002cd6:	884d      	ldrh	r5, [r1, #2]
 8002cd8:	2d7f      	cmp	r5, #127	; 0x7f
 8002cda:	d803      	bhi.n	8002ce4 <USBD_StdDevReq+0x130>
 8002cdc:	f890 3274 	ldrb.w	r3, [r0, #628]	; 0x274
 8002ce0:	2b03      	cmp	r3, #3
 8002ce2:	d103      	bne.n	8002cec <USBD_StdDevReq+0x138>
 8002ce4:	4620      	mov	r0, r4
 8002ce6:	f7ff ff5a 	bl	8002b9e <USBD_CtlError.constprop.1>
 8002cea:	e786      	b.n	8002bfa <USBD_StdDevReq+0x46>
 8002cec:	b2e9      	uxtb	r1, r5
 8002cee:	f880 1276 	strb.w	r1, [r0, #630]	; 0x276
 8002cf2:	f000 fbaf 	bl	8003454 <USBD_LL_SetUSBAddress>
 8002cf6:	4620      	mov	r0, r4
 8002cf8:	f000 f989 	bl	800300e <USBD_CtlSendStatus>
 8002cfc:	b11d      	cbz	r5, 8002d06 <USBD_StdDevReq+0x152>
 8002cfe:	2302      	movs	r3, #2
 8002d00:	f884 3274 	strb.w	r3, [r4, #628]	; 0x274
 8002d04:	e779      	b.n	8002bfa <USBD_StdDevReq+0x46>
 8002d06:	2301      	movs	r3, #1
 8002d08:	e7fa      	b.n	8002d00 <USBD_StdDevReq+0x14c>
 8002d0a:	7889      	ldrb	r1, [r1, #2]
 8002d0c:	4d35      	ldr	r5, [pc, #212]	; (8002de4 <USBD_StdDevReq+0x230>)
 8002d0e:	2901      	cmp	r1, #1
 8002d10:	7029      	strb	r1, [r5, #0]
 8002d12:	d8e7      	bhi.n	8002ce4 <USBD_StdDevReq+0x130>
 8002d14:	f890 3274 	ldrb.w	r3, [r0, #628]	; 0x274
 8002d18:	2b02      	cmp	r3, #2
 8002d1a:	d008      	beq.n	8002d2e <USBD_StdDevReq+0x17a>
 8002d1c:	2b03      	cmp	r3, #3
 8002d1e:	d014      	beq.n	8002d4a <USBD_StdDevReq+0x196>
 8002d20:	f7ff ff3d 	bl	8002b9e <USBD_CtlError.constprop.1>
 8002d24:	7829      	ldrb	r1, [r5, #0]
 8002d26:	4620      	mov	r0, r4
 8002d28:	f7ff fe19 	bl	800295e <USBD_ClrClassConfig>
 8002d2c:	e765      	b.n	8002bfa <USBD_StdDevReq+0x46>
 8002d2e:	2900      	cmp	r1, #0
 8002d30:	d089      	beq.n	8002c46 <USBD_StdDevReq+0x92>
 8002d32:	2101      	movs	r1, #1
 8002d34:	2303      	movs	r3, #3
 8002d36:	6041      	str	r1, [r0, #4]
 8002d38:	f880 3274 	strb.w	r3, [r0, #628]	; 0x274
 8002d3c:	4620      	mov	r0, r4
 8002d3e:	f7ff fe03 	bl	8002948 <USBD_SetClassConfig>
 8002d42:	2802      	cmp	r0, #2
 8002d44:	f47f af7f 	bne.w	8002c46 <USBD_StdDevReq+0x92>
 8002d48:	e7cc      	b.n	8002ce4 <USBD_StdDevReq+0x130>
 8002d4a:	b931      	cbnz	r1, 8002d5a <USBD_StdDevReq+0x1a6>
 8002d4c:	2302      	movs	r3, #2
 8002d4e:	f880 3274 	strb.w	r3, [r0, #628]	; 0x274
 8002d52:	6041      	str	r1, [r0, #4]
 8002d54:	f7ff fe03 	bl	800295e <USBD_ClrClassConfig>
 8002d58:	e775      	b.n	8002c46 <USBD_StdDevReq+0x92>
 8002d5a:	6841      	ldr	r1, [r0, #4]
 8002d5c:	2901      	cmp	r1, #1
 8002d5e:	f43f af72 	beq.w	8002c46 <USBD_StdDevReq+0x92>
 8002d62:	b2c9      	uxtb	r1, r1
 8002d64:	f7ff fdfb 	bl	800295e <USBD_ClrClassConfig>
 8002d68:	7829      	ldrb	r1, [r5, #0]
 8002d6a:	6061      	str	r1, [r4, #4]
 8002d6c:	e7e6      	b.n	8002d3c <USBD_StdDevReq+0x188>
 8002d6e:	88ca      	ldrh	r2, [r1, #6]
 8002d70:	2a01      	cmp	r2, #1
 8002d72:	d1b7      	bne.n	8002ce4 <USBD_StdDevReq+0x130>
 8002d74:	f890 3274 	ldrb.w	r3, [r0, #628]	; 0x274
 8002d78:	2b00      	cmp	r3, #0
 8002d7a:	d0b3      	beq.n	8002ce4 <USBD_StdDevReq+0x130>
 8002d7c:	2b02      	cmp	r3, #2
 8002d7e:	d903      	bls.n	8002d88 <USBD_StdDevReq+0x1d4>
 8002d80:	2b03      	cmp	r3, #3
 8002d82:	d1af      	bne.n	8002ce4 <USBD_StdDevReq+0x130>
 8002d84:	1d01      	adds	r1, r0, #4
 8002d86:	e003      	b.n	8002d90 <USBD_StdDevReq+0x1dc>
 8002d88:	4601      	mov	r1, r0
 8002d8a:	2300      	movs	r3, #0
 8002d8c:	f841 3f08 	str.w	r3, [r1, #8]!
 8002d90:	4620      	mov	r0, r4
 8002d92:	f000 f910 	bl	8002fb6 <USBD_CtlSendData>
 8002d96:	e730      	b.n	8002bfa <USBD_StdDevReq+0x46>
 8002d98:	f890 3274 	ldrb.w	r3, [r0, #628]	; 0x274
 8002d9c:	3b01      	subs	r3, #1
 8002d9e:	2b02      	cmp	r3, #2
 8002da0:	d8a0      	bhi.n	8002ce4 <USBD_StdDevReq+0x130>
 8002da2:	88cb      	ldrh	r3, [r1, #6]
 8002da4:	2b02      	cmp	r3, #2
 8002da6:	d19d      	bne.n	8002ce4 <USBD_StdDevReq+0x130>
 8002da8:	2301      	movs	r3, #1
 8002daa:	60c3      	str	r3, [r0, #12]
 8002dac:	f8d0 327c 	ldr.w	r3, [r0, #636]	; 0x27c
 8002db0:	b10b      	cbz	r3, 8002db6 <USBD_StdDevReq+0x202>
 8002db2:	2303      	movs	r3, #3
 8002db4:	60c3      	str	r3, [r0, #12]
 8002db6:	2202      	movs	r2, #2
 8002db8:	f104 010c 	add.w	r1, r4, #12
 8002dbc:	e7e8      	b.n	8002d90 <USBD_StdDevReq+0x1dc>
 8002dbe:	884b      	ldrh	r3, [r1, #2]
 8002dc0:	2b01      	cmp	r3, #1
 8002dc2:	f47f af1a 	bne.w	8002bfa <USBD_StdDevReq+0x46>
 8002dc6:	f8c4 327c 	str.w	r3, [r4, #636]	; 0x27c
 8002dca:	e73c      	b.n	8002c46 <USBD_StdDevReq+0x92>
 8002dcc:	f890 3274 	ldrb.w	r3, [r0, #628]	; 0x274
 8002dd0:	3b01      	subs	r3, #1
 8002dd2:	2b02      	cmp	r3, #2
 8002dd4:	d886      	bhi.n	8002ce4 <USBD_StdDevReq+0x130>
 8002dd6:	884b      	ldrh	r3, [r1, #2]
 8002dd8:	2b01      	cmp	r3, #1
 8002dda:	f47f af0e 	bne.w	8002bfa <USBD_StdDevReq+0x46>
 8002dde:	2300      	movs	r3, #0
 8002de0:	e7f1      	b.n	8002dc6 <USBD_StdDevReq+0x212>
 8002de2:	bf00      	nop
 8002de4:	20000200 	.word	0x20000200

08002de8 <USBD_StdItfReq>:
 8002de8:	b538      	push	{r3, r4, r5, lr}
 8002dea:	780b      	ldrb	r3, [r1, #0]
 8002dec:	f003 0360 	and.w	r3, r3, #96	; 0x60
 8002df0:	2b20      	cmp	r3, #32
 8002df2:	4604      	mov	r4, r0
 8002df4:	460d      	mov	r5, r1
 8002df6:	d002      	beq.n	8002dfe <USBD_StdItfReq+0x16>
 8002df8:	2b40      	cmp	r3, #64	; 0x40
 8002dfa:	d000      	beq.n	8002dfe <USBD_StdItfReq+0x16>
 8002dfc:	b9ab      	cbnz	r3, 8002e2a <USBD_StdItfReq+0x42>
 8002dfe:	f894 3274 	ldrb.w	r3, [r4, #628]	; 0x274
 8002e02:	3b01      	subs	r3, #1
 8002e04:	2b02      	cmp	r3, #2
 8002e06:	d810      	bhi.n	8002e2a <USBD_StdItfReq+0x42>
 8002e08:	792b      	ldrb	r3, [r5, #4]
 8002e0a:	2b01      	cmp	r3, #1
 8002e0c:	d80d      	bhi.n	8002e2a <USBD_StdItfReq+0x42>
 8002e0e:	f8d4 328c 	ldr.w	r3, [r4, #652]	; 0x28c
 8002e12:	4629      	mov	r1, r5
 8002e14:	689b      	ldr	r3, [r3, #8]
 8002e16:	4620      	mov	r0, r4
 8002e18:	4798      	blx	r3
 8002e1a:	88eb      	ldrh	r3, [r5, #6]
 8002e1c:	b91b      	cbnz	r3, 8002e26 <USBD_StdItfReq+0x3e>
 8002e1e:	b910      	cbnz	r0, 8002e26 <USBD_StdItfReq+0x3e>
 8002e20:	4620      	mov	r0, r4
 8002e22:	f000 f8f4 	bl	800300e <USBD_CtlSendStatus>
 8002e26:	2000      	movs	r0, #0
 8002e28:	bd38      	pop	{r3, r4, r5, pc}
 8002e2a:	4620      	mov	r0, r4
 8002e2c:	f7ff feb7 	bl	8002b9e <USBD_CtlError.constprop.1>
 8002e30:	e7f9      	b.n	8002e26 <USBD_StdItfReq+0x3e>

08002e32 <USBD_StdEPReq>:
 8002e32:	b538      	push	{r3, r4, r5, lr}
 8002e34:	780a      	ldrb	r2, [r1, #0]
 8002e36:	f002 0260 	and.w	r2, r2, #96	; 0x60
 8002e3a:	2a20      	cmp	r2, #32
 8002e3c:	4604      	mov	r4, r0
 8002e3e:	460b      	mov	r3, r1
 8002e40:	d014      	beq.n	8002e6c <USBD_StdEPReq+0x3a>
 8002e42:	2a40      	cmp	r2, #64	; 0x40
 8002e44:	d012      	beq.n	8002e6c <USBD_StdEPReq+0x3a>
 8002e46:	b96a      	cbnz	r2, 8002e64 <USBD_StdEPReq+0x32>
 8002e48:	785a      	ldrb	r2, [r3, #1]
 8002e4a:	888d      	ldrh	r5, [r1, #4]
 8002e4c:	2a01      	cmp	r2, #1
 8002e4e:	b2e9      	uxtb	r1, r5
 8002e50:	d020      	beq.n	8002e94 <USBD_StdEPReq+0x62>
 8002e52:	d336      	bcc.n	8002ec2 <USBD_StdEPReq+0x90>
 8002e54:	2a03      	cmp	r2, #3
 8002e56:	d105      	bne.n	8002e64 <USBD_StdEPReq+0x32>
 8002e58:	f890 2274 	ldrb.w	r2, [r0, #628]	; 0x274
 8002e5c:	2a02      	cmp	r2, #2
 8002e5e:	d027      	beq.n	8002eb0 <USBD_StdEPReq+0x7e>
 8002e60:	2a03      	cmp	r2, #3
 8002e62:	d00b      	beq.n	8002e7c <USBD_StdEPReq+0x4a>
 8002e64:	4620      	mov	r0, r4
 8002e66:	f7ff fe9a 	bl	8002b9e <USBD_CtlError.constprop.1>
 8002e6a:	e005      	b.n	8002e78 <USBD_StdEPReq+0x46>
 8002e6c:	f8d4 228c 	ldr.w	r2, [r4, #652]	; 0x28c
 8002e70:	4619      	mov	r1, r3
 8002e72:	6892      	ldr	r2, [r2, #8]
 8002e74:	4620      	mov	r0, r4
 8002e76:	4790      	blx	r2
 8002e78:	2000      	movs	r0, #0
 8002e7a:	bd38      	pop	{r3, r4, r5, pc}
 8002e7c:	885a      	ldrh	r2, [r3, #2]
 8002e7e:	b92a      	cbnz	r2, 8002e8c <USBD_StdEPReq+0x5a>
 8002e80:	064a      	lsls	r2, r1, #25
 8002e82:	d003      	beq.n	8002e8c <USBD_StdEPReq+0x5a>
 8002e84:	88db      	ldrh	r3, [r3, #6]
 8002e86:	b90b      	cbnz	r3, 8002e8c <USBD_StdEPReq+0x5a>
 8002e88:	f000 fab4 	bl	80033f4 <USBD_LL_StallEP>
 8002e8c:	4620      	mov	r0, r4
 8002e8e:	f000 f8be 	bl	800300e <USBD_CtlSendStatus>
 8002e92:	e7f1      	b.n	8002e78 <USBD_StdEPReq+0x46>
 8002e94:	f890 2274 	ldrb.w	r2, [r0, #628]	; 0x274
 8002e98:	2a02      	cmp	r2, #2
 8002e9a:	d009      	beq.n	8002eb0 <USBD_StdEPReq+0x7e>
 8002e9c:	2a03      	cmp	r2, #3
 8002e9e:	d1e1      	bne.n	8002e64 <USBD_StdEPReq+0x32>
 8002ea0:	885b      	ldrh	r3, [r3, #2]
 8002ea2:	2b00      	cmp	r3, #0
 8002ea4:	d1e8      	bne.n	8002e78 <USBD_StdEPReq+0x46>
 8002ea6:	064d      	lsls	r5, r1, #25
 8002ea8:	d0f0      	beq.n	8002e8c <USBD_StdEPReq+0x5a>
 8002eaa:	f000 fab1 	bl	8003410 <USBD_LL_ClearStallEP>
 8002eae:	e7ed      	b.n	8002e8c <USBD_StdEPReq+0x5a>
 8002eb0:	064b      	lsls	r3, r1, #25
 8002eb2:	d0d7      	beq.n	8002e64 <USBD_StdEPReq+0x32>
 8002eb4:	f000 fa9e 	bl	80033f4 <USBD_LL_StallEP>
 8002eb8:	2180      	movs	r1, #128	; 0x80
 8002eba:	4620      	mov	r0, r4
 8002ebc:	f000 fa9a 	bl	80033f4 <USBD_LL_StallEP>
 8002ec0:	e7da      	b.n	8002e78 <USBD_StdEPReq+0x46>
 8002ec2:	f890 3274 	ldrb.w	r3, [r0, #628]	; 0x274
 8002ec6:	2b02      	cmp	r3, #2
 8002ec8:	d018      	beq.n	8002efc <USBD_StdEPReq+0xca>
 8002eca:	2b03      	cmp	r3, #3
 8002ecc:	d1ca      	bne.n	8002e64 <USBD_StdEPReq+0x32>
 8002ece:	f001 020f 	and.w	r2, r1, #15
 8002ed2:	2314      	movs	r3, #20
 8002ed4:	f015 0f80 	tst.w	r5, #128	; 0x80
 8002ed8:	fb03 0202 	mla	r2, r3, r2, r0
 8002edc:	d01d      	beq.n	8002f1a <USBD_StdEPReq+0xe8>
 8002ede:	6992      	ldr	r2, [r2, #24]
 8002ee0:	2a00      	cmp	r2, #0
 8002ee2:	d0bf      	beq.n	8002e64 <USBD_StdEPReq+0x32>
 8002ee4:	f001 057f 	and.w	r5, r1, #127	; 0x7f
 8002ee8:	fb05 3503 	mla	r5, r5, r3, r3
 8002eec:	4405      	add	r5, r0
 8002eee:	f011 037f 	ands.w	r3, r1, #127	; 0x7f
 8002ef2:	d11d      	bne.n	8002f30 <USBD_StdEPReq+0xfe>
 8002ef4:	602b      	str	r3, [r5, #0]
 8002ef6:	2202      	movs	r2, #2
 8002ef8:	4629      	mov	r1, r5
 8002efa:	e00a      	b.n	8002f12 <USBD_StdEPReq+0xe0>
 8002efc:	064a      	lsls	r2, r1, #25
 8002efe:	d1b1      	bne.n	8002e64 <USBD_StdEPReq+0x32>
 8002f00:	062b      	lsls	r3, r5, #24
 8002f02:	bf4c      	ite	mi
 8002f04:	f100 0114 	addmi.w	r1, r0, #20
 8002f08:	f500 71a0 	addpl.w	r1, r0, #320	; 0x140
 8002f0c:	2300      	movs	r3, #0
 8002f0e:	600b      	str	r3, [r1, #0]
 8002f10:	2202      	movs	r2, #2
 8002f12:	4620      	mov	r0, r4
 8002f14:	f000 f84f 	bl	8002fb6 <USBD_CtlSendData>
 8002f18:	e7ae      	b.n	8002e78 <USBD_StdEPReq+0x46>
 8002f1a:	f8d2 2144 	ldr.w	r2, [r2, #324]	; 0x144
 8002f1e:	2a00      	cmp	r2, #0
 8002f20:	d0a0      	beq.n	8002e64 <USBD_StdEPReq+0x32>
 8002f22:	f001 057f 	and.w	r5, r1, #127	; 0x7f
 8002f26:	fb03 0505 	mla	r5, r3, r5, r0
 8002f2a:	f505 75a0 	add.w	r5, r5, #320	; 0x140
 8002f2e:	e7de      	b.n	8002eee <USBD_StdEPReq+0xbc>
 8002f30:	4620      	mov	r0, r4
 8002f32:	f000 fa7b 	bl	800342c <USBD_LL_IsStallEP>
 8002f36:	b108      	cbz	r0, 8002f3c <USBD_StdEPReq+0x10a>
 8002f38:	2301      	movs	r3, #1
 8002f3a:	e7db      	b.n	8002ef4 <USBD_StdEPReq+0xc2>
 8002f3c:	6028      	str	r0, [r5, #0]
 8002f3e:	e7da      	b.n	8002ef6 <USBD_StdEPReq+0xc4>

08002f40 <USBD_ParseSetupRequest>:
 8002f40:	780b      	ldrb	r3, [r1, #0]
 8002f42:	7003      	strb	r3, [r0, #0]
 8002f44:	784b      	ldrb	r3, [r1, #1]
 8002f46:	7043      	strb	r3, [r0, #1]
 8002f48:	78ca      	ldrb	r2, [r1, #3]
 8002f4a:	788b      	ldrb	r3, [r1, #2]
 8002f4c:	eb03 2302 	add.w	r3, r3, r2, lsl #8
 8002f50:	8043      	strh	r3, [r0, #2]
 8002f52:	794a      	ldrb	r2, [r1, #5]
 8002f54:	790b      	ldrb	r3, [r1, #4]
 8002f56:	eb03 2302 	add.w	r3, r3, r2, lsl #8
 8002f5a:	8083      	strh	r3, [r0, #4]
 8002f5c:	79ca      	ldrb	r2, [r1, #7]
 8002f5e:	798b      	ldrb	r3, [r1, #6]
 8002f60:	eb03 2302 	add.w	r3, r3, r2, lsl #8
 8002f64:	80c3      	strh	r3, [r0, #6]
 8002f66:	4770      	bx	lr

08002f68 <USBD_CtlError>:
 8002f68:	b510      	push	{r4, lr}
 8002f6a:	2180      	movs	r1, #128	; 0x80
 8002f6c:	4604      	mov	r4, r0
 8002f6e:	f000 fa41 	bl	80033f4 <USBD_LL_StallEP>
 8002f72:	4620      	mov	r0, r4
 8002f74:	2100      	movs	r1, #0
 8002f76:	e8bd 4010 	ldmia.w	sp!, {r4, lr}
 8002f7a:	f000 ba3b 	b.w	80033f4 <USBD_LL_StallEP>

08002f7e <USBD_GetString>:
 8002f7e:	b530      	push	{r4, r5, lr}
 8002f80:	b188      	cbz	r0, 8002fa6 <USBD_GetString+0x28>
 8002f82:	4605      	mov	r5, r0
 8002f84:	1a2b      	subs	r3, r5, r0
 8002f86:	f815 4b01 	ldrb.w	r4, [r5], #1
 8002f8a:	b2db      	uxtb	r3, r3
 8002f8c:	2c00      	cmp	r4, #0
 8002f8e:	d1f9      	bne.n	8002f84 <USBD_GetString+0x6>
 8002f90:	3301      	adds	r3, #1
 8002f92:	005b      	lsls	r3, r3, #1
 8002f94:	8013      	strh	r3, [r2, #0]
 8002f96:	700b      	strb	r3, [r1, #0]
 8002f98:	2303      	movs	r3, #3
 8002f9a:	704b      	strb	r3, [r1, #1]
 8002f9c:	3801      	subs	r0, #1
 8002f9e:	2302      	movs	r3, #2
 8002fa0:	f810 5f01 	ldrb.w	r5, [r0, #1]!
 8002fa4:	b905      	cbnz	r5, 8002fa8 <USBD_GetString+0x2a>
 8002fa6:	bd30      	pop	{r4, r5, pc}
 8002fa8:	1c5a      	adds	r2, r3, #1
 8002faa:	b2d2      	uxtb	r2, r2
 8002fac:	54cd      	strb	r5, [r1, r3]
 8002fae:	3302      	adds	r3, #2
 8002fb0:	b2db      	uxtb	r3, r3
 8002fb2:	548c      	strb	r4, [r1, r2]
 8002fb4:	e7f4      	b.n	8002fa0 <USBD_GetString+0x22>

08002fb6 <USBD_CtlSendData>:
 8002fb6:	b510      	push	{r4, lr}
 8002fb8:	4613      	mov	r3, r2
 8002fba:	2202      	movs	r2, #2
 8002fbc:	f8c0 226c 	str.w	r2, [r0, #620]	; 0x26c
 8002fc0:	e9c0 3307 	strd	r3, r3, [r0, #28]
 8002fc4:	460a      	mov	r2, r1
 8002fc6:	2100      	movs	r1, #0
 8002fc8:	f000 fa52 	bl	8003470 <USBD_LL_Transmit>
 8002fcc:	2000      	movs	r0, #0
 8002fce:	bd10      	pop	{r4, pc}

08002fd0 <USBD_CtlContinueSendData>:
 8002fd0:	b508      	push	{r3, lr}
 8002fd2:	4613      	mov	r3, r2
 8002fd4:	460a      	mov	r2, r1
 8002fd6:	2100      	movs	r1, #0
 8002fd8:	f000 fa4a 	bl	8003470 <USBD_LL_Transmit>
 8002fdc:	2000      	movs	r0, #0
 8002fde:	bd08      	pop	{r3, pc}

08002fe0 <USBD_CtlPrepareRx>:
 8002fe0:	b510      	push	{r4, lr}
 8002fe2:	4613      	mov	r3, r2
 8002fe4:	2203      	movs	r2, #3
 8002fe6:	f8c0 226c 	str.w	r2, [r0, #620]	; 0x26c
 8002fea:	f8c0 3148 	str.w	r3, [r0, #328]	; 0x148
 8002fee:	460a      	mov	r2, r1
 8002ff0:	f8c0 314c 	str.w	r3, [r0, #332]	; 0x14c
 8002ff4:	2100      	movs	r1, #0
 8002ff6:	f000 fa49 	bl	800348c <USBD_LL_PrepareReceive>
 8002ffa:	2000      	movs	r0, #0
 8002ffc:	bd10      	pop	{r4, pc}

08002ffe <USBD_CtlContinueRx>:
 8002ffe:	b508      	push	{r3, lr}
 8003000:	4613      	mov	r3, r2
 8003002:	460a      	mov	r2, r1
 8003004:	2100      	movs	r1, #0
 8003006:	f000 fa41 	bl	800348c <USBD_LL_PrepareReceive>
 800300a:	2000      	movs	r0, #0
 800300c:	bd08      	pop	{r3, pc}

0800300e <USBD_CtlSendStatus>:
 800300e:	b508      	push	{r3, lr}
 8003010:	2304      	movs	r3, #4
 8003012:	f8c0 326c 	str.w	r3, [r0, #620]	; 0x26c
 8003016:	2300      	movs	r3, #0
 8003018:	461a      	mov	r2, r3
 800301a:	4619      	mov	r1, r3
 800301c:	f000 fa28 	bl	8003470 <USBD_LL_Transmit>
 8003020:	2000      	movs	r0, #0
 8003022:	bd08      	pop	{r3, pc}

08003024 <USBD_CtlReceiveStatus>:
 8003024:	b508      	push	{r3, lr}
 8003026:	2305      	movs	r3, #5
 8003028:	f8c0 326c 	str.w	r3, [r0, #620]	; 0x26c
 800302c:	2300      	movs	r3, #0
 800302e:	461a      	mov	r2, r3
 8003030:	4619      	mov	r1, r3
 8003032:	f000 fa2b 	bl	800348c <USBD_LL_PrepareReceive>
 8003036:	2000      	movs	r0, #0
 8003038:	bd08      	pop	{r3, pc}
	...

0800303c <MX_USB_DEVICE_Init>:
 800303c:	b508      	push	{r3, lr}
 800303e:	2200      	movs	r2, #0
 8003040:	490e      	ldr	r1, [pc, #56]	; (800307c <MX_USB_DEVICE_Init+0x40>)
 8003042:	480f      	ldr	r0, [pc, #60]	; (8003080 <MX_USB_DEVICE_Init+0x44>)
 8003044:	f7ff fc5f 	bl	8002906 <USBD_Init>
 8003048:	b108      	cbz	r0, 800304e <MX_USB_DEVICE_Init+0x12>
 800304a:	f7fd fb45 	bl	80006d8 <Error_Handler>
 800304e:	490d      	ldr	r1, [pc, #52]	; (8003084 <MX_USB_DEVICE_Init+0x48>)
 8003050:	480b      	ldr	r0, [pc, #44]	; (8003080 <MX_USB_DEVICE_Init+0x44>)
 8003052:	f7ff fc6d 	bl	8002930 <USBD_RegisterClass>
 8003056:	b108      	cbz	r0, 800305c <MX_USB_DEVICE_Init+0x20>
 8003058:	f7fd fb3e 	bl	80006d8 <Error_Handler>
 800305c:	490a      	ldr	r1, [pc, #40]	; (8003088 <MX_USB_DEVICE_Init+0x4c>)
 800305e:	4808      	ldr	r0, [pc, #32]	; (8003080 <MX_USB_DEVICE_Init+0x44>)
 8003060:	f7ff fc10 	bl	8002884 <USBD_CDC_RegisterInterface>
 8003064:	b108      	cbz	r0, 800306a <MX_USB_DEVICE_Init+0x2e>
 8003066:	f7fd fb37 	bl	80006d8 <Error_Handler>
 800306a:	4805      	ldr	r0, [pc, #20]	; (8003080 <MX_USB_DEVICE_Init+0x44>)
 800306c:	f7ff fc67 	bl	800293e <USBD_Start>
 8003070:	b118      	cbz	r0, 800307a <MX_USB_DEVICE_Init+0x3e>
 8003072:	e8bd 4008 	ldmia.w	sp!, {r3, lr}
 8003076:	f7fd bb2f 	b.w	80006d8 <Error_Handler>
 800307a:	bd08      	pop	{r3, pc}
 800307c:	2000012c 	.word	0x2000012c
 8003080:	20000268 	.word	0x20000268
 8003084:	2000000c 	.word	0x2000000c
 8003088:	2000011c 	.word	0x2000011c

0800308c <CDC_DeInit_FS>:
 800308c:	2000      	movs	r0, #0
 800308e:	4770      	bx	lr

08003090 <CDC_Control_FS>:
 8003090:	2000      	movs	r0, #0
 8003092:	4770      	bx	lr

08003094 <CDC_Receive_FS>:
 8003094:	b510      	push	{r4, lr}
 8003096:	4c05      	ldr	r4, [pc, #20]	; (80030ac <CDC_Receive_FS+0x18>)
 8003098:	4601      	mov	r1, r0
 800309a:	4620      	mov	r0, r4
 800309c:	f7ff fc01 	bl	80028a2 <USBD_CDC_SetRxBuffer>
 80030a0:	4620      	mov	r0, r4
 80030a2:	f7ff fc1d 	bl	80028e0 <USBD_CDC_ReceivePacket>
 80030a6:	2000      	movs	r0, #0
 80030a8:	bd10      	pop	{r4, pc}
 80030aa:	bf00      	nop
 80030ac:	20000268 	.word	0x20000268

080030b0 <CDC_Init_FS>:
 80030b0:	b510      	push	{r4, lr}
 80030b2:	4c06      	ldr	r4, [pc, #24]	; (80030cc <CDC_Init_FS+0x1c>)
 80030b4:	4906      	ldr	r1, [pc, #24]	; (80030d0 <CDC_Init_FS+0x20>)
 80030b6:	2200      	movs	r2, #0
 80030b8:	4620      	mov	r0, r4
 80030ba:	f7ff fbea 	bl	8002892 <USBD_CDC_SetTxBuffer>
 80030be:	4905      	ldr	r1, [pc, #20]	; (80030d4 <CDC_Init_FS+0x24>)
 80030c0:	4620      	mov	r0, r4
 80030c2:	f7ff fbee 	bl	80028a2 <USBD_CDC_SetRxBuffer>
 80030c6:	2000      	movs	r0, #0
 80030c8:	bd10      	pop	{r4, pc}
 80030ca:	bf00      	nop
 80030cc:	20000268 	.word	0x20000268
 80030d0:	20000d04 	.word	0x20000d04
 80030d4:	20000504 	.word	0x20000504

080030d8 <CDC_Transmit_FS>:
 80030d8:	b510      	push	{r4, lr}
 80030da:	4c09      	ldr	r4, [pc, #36]	; (8003100 <CDC_Transmit_FS+0x28>)
 80030dc:	f8d4 3290 	ldr.w	r3, [r4, #656]	; 0x290
 80030e0:	f8d3 3214 	ldr.w	r3, [r3, #532]	; 0x214
 80030e4:	460a      	mov	r2, r1
 80030e6:	b943      	cbnz	r3, 80030fa <CDC_Transmit_FS+0x22>
 80030e8:	4601      	mov	r1, r0
 80030ea:	4620      	mov	r0, r4
 80030ec:	f7ff fbd1 	bl	8002892 <USBD_CDC_SetTxBuffer>
 80030f0:	4620      	mov	r0, r4
 80030f2:	e8bd 4010 	ldmia.w	sp!, {r4, lr}
 80030f6:	f7ff bbda 	b.w	80028ae <USBD_CDC_TransmitPacket>
 80030fa:	2001      	movs	r0, #1
 80030fc:	bd10      	pop	{r4, pc}
 80030fe:	bf00      	nop
 8003100:	20000268 	.word	0x20000268

08003104 <USBD_FS_DeviceDescriptor>:
 8003104:	2312      	movs	r3, #18
 8003106:	800b      	strh	r3, [r1, #0]
 8003108:	4800      	ldr	r0, [pc, #0]	; (800310c <USBD_FS_DeviceDescriptor+0x8>)
 800310a:	4770      	bx	lr
 800310c:	20000148 	.word	0x20000148

08003110 <USBD_FS_LangIDStrDescriptor>:
 8003110:	2304      	movs	r3, #4
 8003112:	800b      	strh	r3, [r1, #0]
 8003114:	4800      	ldr	r0, [pc, #0]	; (8003118 <USBD_FS_LangIDStrDescriptor+0x8>)
 8003116:	4770      	bx	lr
 8003118:	2000015c 	.word	0x2000015c

0800311c <IntToUnicode>:
 800311c:	2300      	movs	r3, #0
 800311e:	b570      	push	{r4, r5, r6, lr}
 8003120:	461e      	mov	r6, r3
 8003122:	0f05      	lsrs	r5, r0, #28
 8003124:	b2ec      	uxtb	r4, r5
 8003126:	2d09      	cmp	r5, #9
 8003128:	bf94      	ite	ls
 800312a:	3430      	addls	r4, #48	; 0x30
 800312c:	3437      	addhi	r4, #55	; 0x37
 800312e:	f801 4013 	strb.w	r4, [r1, r3, lsl #1]
 8003132:	eb01 0443 	add.w	r4, r1, r3, lsl #1
 8003136:	3301      	adds	r3, #1
 8003138:	7066      	strb	r6, [r4, #1]
 800313a:	b2dc      	uxtb	r4, r3
 800313c:	42a2      	cmp	r2, r4
 800313e:	ea4f 1000 	mov.w	r0, r0, lsl #4
 8003142:	d8ee      	bhi.n	8003122 <IntToUnicode+0x6>
 8003144:	bd70      	pop	{r4, r5, r6, pc}
	...

08003148 <USBD_FS_SerialStrDescriptor>:
 8003148:	231a      	movs	r3, #26
 800314a:	b510      	push	{r4, lr}
 800314c:	800b      	strh	r3, [r1, #0]
 800314e:	4b09      	ldr	r3, [pc, #36]	; (8003174 <USBD_FS_SerialStrDescriptor+0x2c>)
 8003150:	6818      	ldr	r0, [r3, #0]
 8003152:	3308      	adds	r3, #8
 8003154:	681b      	ldr	r3, [r3, #0]
 8003156:	18c0      	adds	r0, r0, r3
 8003158:	d00a      	beq.n	8003170 <USBD_FS_SerialStrDescriptor+0x28>
 800315a:	4b07      	ldr	r3, [pc, #28]	; (8003178 <USBD_FS_SerialStrDescriptor+0x30>)
 800315c:	4907      	ldr	r1, [pc, #28]	; (800317c <USBD_FS_SerialStrDescriptor+0x34>)
 800315e:	681c      	ldr	r4, [r3, #0]
 8003160:	2208      	movs	r2, #8
 8003162:	f7ff ffdb 	bl	800311c <IntToUnicode>
 8003166:	2204      	movs	r2, #4
 8003168:	4905      	ldr	r1, [pc, #20]	; (8003180 <USBD_FS_SerialStrDescriptor+0x38>)
 800316a:	4620      	mov	r0, r4
 800316c:	f7ff ffd6 	bl	800311c <IntToUnicode>
 8003170:	4804      	ldr	r0, [pc, #16]	; (8003184 <USBD_FS_SerialStrDescriptor+0x3c>)
 8003172:	bd10      	pop	{r4, pc}
 8003174:	1fff7a10 	.word	0x1fff7a10
 8003178:	1fff7a14 	.word	0x1fff7a14
 800317c:	20000162 	.word	0x20000162
 8003180:	20000172 	.word	0x20000172
 8003184:	20000160 	.word	0x20000160

08003188 <USBD_FS_ManufacturerStrDescriptor>:
 8003188:	b510      	push	{r4, lr}
 800318a:	4c04      	ldr	r4, [pc, #16]	; (800319c <USBD_FS_ManufacturerStrDescriptor+0x14>)
 800318c:	4804      	ldr	r0, [pc, #16]	; (80031a0 <USBD_FS_ManufacturerStrDescriptor+0x18>)
 800318e:	460a      	mov	r2, r1
 8003190:	4621      	mov	r1, r4
 8003192:	f7ff fef4 	bl	8002f7e <USBD_GetString>
 8003196:	4620      	mov	r0, r4
 8003198:	bd10      	pop	{r4, pc}
 800319a:	bf00      	nop
 800319c:	20001504 	.word	0x20001504
 80031a0:	08003721 	.word	0x08003721

080031a4 <USBD_FS_ProductStrDescriptor>:
 80031a4:	b510      	push	{r4, lr}
 80031a6:	4c04      	ldr	r4, [pc, #16]	; (80031b8 <USBD_FS_ProductStrDescriptor+0x14>)
 80031a8:	4804      	ldr	r0, [pc, #16]	; (80031bc <USBD_FS_ProductStrDescriptor+0x18>)
 80031aa:	460a      	mov	r2, r1
 80031ac:	4621      	mov	r1, r4
 80031ae:	f7ff fee6 	bl	8002f7e <USBD_GetString>
 80031b2:	4620      	mov	r0, r4
 80031b4:	bd10      	pop	{r4, pc}
 80031b6:	bf00      	nop
 80031b8:	20001504 	.word	0x20001504
 80031bc:	08003734 	.word	0x08003734

080031c0 <USBD_FS_ConfigStrDescriptor>:
 80031c0:	b510      	push	{r4, lr}
 80031c2:	4c04      	ldr	r4, [pc, #16]	; (80031d4 <USBD_FS_ConfigStrDescriptor+0x14>)
 80031c4:	4804      	ldr	r0, [pc, #16]	; (80031d8 <USBD_FS_ConfigStrDescriptor+0x18>)
 80031c6:	460a      	mov	r2, r1
 80031c8:	4621      	mov	r1, r4
 80031ca:	f7ff fed8 	bl	8002f7e <USBD_GetString>
 80031ce:	4620      	mov	r0, r4
 80031d0:	bd10      	pop	{r4, pc}
 80031d2:	bf00      	nop
 80031d4:	20001504 	.word	0x20001504
 80031d8:	08003708 	.word	0x08003708

080031dc <USBD_FS_InterfaceStrDescriptor>:
 80031dc:	b510      	push	{r4, lr}
 80031de:	4c04      	ldr	r4, [pc, #16]	; (80031f0 <USBD_FS_InterfaceStrDescriptor+0x14>)
 80031e0:	4804      	ldr	r0, [pc, #16]	; (80031f4 <USBD_FS_InterfaceStrDescriptor+0x18>)
 80031e2:	460a      	mov	r2, r1
 80031e4:	4621      	mov	r1, r4
 80031e6:	f7ff feca 	bl	8002f7e <USBD_GetString>
 80031ea:	4620      	mov	r0, r4
 80031ec:	bd10      	pop	{r4, pc}
 80031ee:	bf00      	nop
 80031f0:	20001504 	.word	0x20001504
 80031f4:	08003713 	.word	0x08003713

080031f8 <HAL_PCD_MspInit>:
 80031f8:	b530      	push	{r4, r5, lr}
 80031fa:	4604      	mov	r4, r0
 80031fc:	b089      	sub	sp, #36	; 0x24
 80031fe:	2214      	movs	r2, #20
 8003200:	2100      	movs	r1, #0
 8003202:	a803      	add	r0, sp, #12
 8003204:	f000 f98e 	bl	8003524 <memset>
 8003208:	6823      	ldr	r3, [r4, #0]
 800320a:	f1b3 4fa0 	cmp.w	r3, #1342177280	; 0x50000000
 800320e:	d135      	bne.n	800327c <HAL_PCD_MspInit+0x84>
 8003210:	4c1b      	ldr	r4, [pc, #108]	; (8003280 <HAL_PCD_MspInit+0x88>)
 8003212:	481c      	ldr	r0, [pc, #112]	; (8003284 <HAL_PCD_MspInit+0x8c>)
 8003214:	2500      	movs	r5, #0
 8003216:	9501      	str	r5, [sp, #4]
 8003218:	6b23      	ldr	r3, [r4, #48]	; 0x30
 800321a:	f043 0301 	orr.w	r3, r3, #1
 800321e:	6323      	str	r3, [r4, #48]	; 0x30
 8003220:	6b23      	ldr	r3, [r4, #48]	; 0x30
 8003222:	f003 0301 	and.w	r3, r3, #1
 8003226:	9301      	str	r3, [sp, #4]
 8003228:	9b01      	ldr	r3, [sp, #4]
 800322a:	a903      	add	r1, sp, #12
 800322c:	f44f 7300 	mov.w	r3, #512	; 0x200
 8003230:	9303      	str	r3, [sp, #12]
 8003232:	f7fd fbd7 	bl	80009e4 <HAL_GPIO_Init>
 8003236:	f44f 52c0 	mov.w	r2, #6144	; 0x1800
 800323a:	2302      	movs	r3, #2
 800323c:	e9cd 2303 	strd	r2, r3, [sp, #12]
 8003240:	a903      	add	r1, sp, #12
 8003242:	230a      	movs	r3, #10
 8003244:	480f      	ldr	r0, [pc, #60]	; (8003284 <HAL_PCD_MspInit+0x8c>)
 8003246:	9307      	str	r3, [sp, #28]
 8003248:	e9cd 5505 	strd	r5, r5, [sp, #20]
 800324c:	f7fd fbca 	bl	80009e4 <HAL_GPIO_Init>
 8003250:	6b63      	ldr	r3, [r4, #52]	; 0x34
 8003252:	f043 0380 	orr.w	r3, r3, #128	; 0x80
 8003256:	6363      	str	r3, [r4, #52]	; 0x34
 8003258:	9502      	str	r5, [sp, #8]
 800325a:	6c63      	ldr	r3, [r4, #68]	; 0x44
 800325c:	f443 4380 	orr.w	r3, r3, #16384	; 0x4000
 8003260:	6463      	str	r3, [r4, #68]	; 0x44
 8003262:	6c63      	ldr	r3, [r4, #68]	; 0x44
 8003264:	f403 4380 	and.w	r3, r3, #16384	; 0x4000
 8003268:	9302      	str	r3, [sp, #8]
 800326a:	2043      	movs	r0, #67	; 0x43
 800326c:	462a      	mov	r2, r5
 800326e:	4629      	mov	r1, r5
 8003270:	9b02      	ldr	r3, [sp, #8]
 8003272:	f7fd fb5f 	bl	8000934 <HAL_NVIC_SetPriority>
 8003276:	2043      	movs	r0, #67	; 0x43
 8003278:	f7fd fb90 	bl	800099c <HAL_NVIC_EnableIRQ>
 800327c:	b009      	add	sp, #36	; 0x24
 800327e:	bd30      	pop	{r4, r5, pc}
 8003280:	40023800 	.word	0x40023800
 8003284:	40020000 	.word	0x40020000

08003288 <HAL_PCD_SetupStageCallback>:
 8003288:	f500 7171 	add.w	r1, r0, #964	; 0x3c4
 800328c:	f8d0 0404 	ldr.w	r0, [r0, #1028]	; 0x404
 8003290:	f7ff bb6c 	b.w	800296c <USBD_LL_SetupStage>

08003294 <HAL_PCD_DataOutStageCallback>:
 8003294:	231c      	movs	r3, #28
 8003296:	fb03 0301 	mla	r3, r3, r1, r0
 800329a:	f8d0 0404 	ldr.w	r0, [r0, #1028]	; 0x404
 800329e:	f8d3 2208 	ldr.w	r2, [r3, #520]	; 0x208
 80032a2:	f7ff bb90 	b.w	80029c6 <USBD_LL_DataOutStage>

080032a6 <HAL_PCD_DataInStageCallback>:
 80032a6:	231c      	movs	r3, #28
 80032a8:	fb03 0301 	mla	r3, r3, r1, r0
 80032ac:	f8d0 0404 	ldr.w	r0, [r0, #1028]	; 0x404
 80032b0:	6c9a      	ldr	r2, [r3, #72]	; 0x48
 80032b2:	f7ff bbc2 	b.w	8002a3a <USBD_LL_DataInStage>

080032b6 <HAL_PCD_SOFCallback>:
 80032b6:	f8d0 0404 	ldr.w	r0, [r0, #1028]	; 0x404
 80032ba:	f7ff bc53 	b.w	8002b64 <USBD_LL_SOF>

080032be <HAL_PCD_ResetCallback>:
 80032be:	68c1      	ldr	r1, [r0, #12]
 80032c0:	b510      	push	{r4, lr}
 80032c2:	4604      	mov	r4, r0
 80032c4:	b121      	cbz	r1, 80032d0 <HAL_PCD_ResetCallback+0x12>
 80032c6:	2902      	cmp	r1, #2
 80032c8:	d001      	beq.n	80032ce <HAL_PCD_ResetCallback+0x10>
 80032ca:	f7fd fa05 	bl	80006d8 <Error_Handler>
 80032ce:	2101      	movs	r1, #1
 80032d0:	f8d4 0404 	ldr.w	r0, [r4, #1028]	; 0x404
 80032d4:	f7ff fc34 	bl	8002b40 <USBD_LL_SetSpeed>
 80032d8:	f8d4 0404 	ldr.w	r0, [r4, #1028]	; 0x404
 80032dc:	e8bd 4010 	ldmia.w	sp!, {r4, lr}
 80032e0:	f7ff bc07 	b.w	8002af2 <USBD_LL_Reset>

080032e4 <HAL_PCD_SuspendCallback>:
 80032e4:	b510      	push	{r4, lr}
 80032e6:	4604      	mov	r4, r0
 80032e8:	f8d0 0404 	ldr.w	r0, [r0, #1028]	; 0x404
 80032ec:	f7ff fc2b 	bl	8002b46 <USBD_LL_Suspend>
 80032f0:	6822      	ldr	r2, [r4, #0]
 80032f2:	f8d2 3e00 	ldr.w	r3, [r2, #3584]	; 0xe00
 80032f6:	f043 0301 	orr.w	r3, r3, #1
 80032fa:	f8c2 3e00 	str.w	r3, [r2, #3584]	; 0xe00
 80032fe:	6a23      	ldr	r3, [r4, #32]
 8003300:	b123      	cbz	r3, 800330c <HAL_PCD_SuspendCallback+0x28>
 8003302:	4a03      	ldr	r2, [pc, #12]	; (8003310 <HAL_PCD_SuspendCallback+0x2c>)
 8003304:	6913      	ldr	r3, [r2, #16]
 8003306:	f043 0306 	orr.w	r3, r3, #6
 800330a:	6113      	str	r3, [r2, #16]
 800330c:	bd10      	pop	{r4, pc}
 800330e:	bf00      	nop
 8003310:	e000ed00 	.word	0xe000ed00

08003314 <HAL_PCD_ResumeCallback>:
 8003314:	f8d0 0404 	ldr.w	r0, [r0, #1028]	; 0x404
 8003318:	f7ff bc1e 	b.w	8002b58 <USBD_LL_Resume>

0800331c <HAL_PCD_ISOOUTIncompleteCallback>:
 800331c:	f8d0 0404 	ldr.w	r0, [r0, #1028]	; 0x404
 8003320:	f7ff bc2e 	b.w	8002b80 <USBD_LL_IsoOUTIncomplete>

08003324 <HAL_PCD_ISOINIncompleteCallback>:
 8003324:	f8d0 0404 	ldr.w	r0, [r0, #1028]	; 0x404
 8003328:	f7ff bc28 	b.w	8002b7c <USBD_LL_IsoINIncomplete>

0800332c <HAL_PCD_ConnectCallback>:
 800332c:	f8d0 0404 	ldr.w	r0, [r0, #1028]	; 0x404
 8003330:	f7ff bc28 	b.w	8002b84 <USBD_LL_DevConnected>

08003334 <HAL_PCD_DisconnectCallback>:
 8003334:	f8d0 0404 	ldr.w	r0, [r0, #1028]	; 0x404
 8003338:	f7ff bc26 	b.w	8002b88 <USBD_LL_DevDisconnected>

0800333c <USBD_LL_Init>:
 800333c:	b508      	push	{r3, lr}
 800333e:	7802      	ldrb	r2, [r0, #0]
 8003340:	bb3a      	cbnz	r2, 8003392 <USBD_LL_Init+0x56>
 8003342:	4b15      	ldr	r3, [pc, #84]	; (8003398 <USBD_LL_Init+0x5c>)
 8003344:	2104      	movs	r1, #4
 8003346:	f8c3 0404 	str.w	r0, [r3, #1028]	; 0x404
 800334a:	f8c0 3298 	str.w	r3, [r0, #664]	; 0x298
 800334e:	f04f 40a0 	mov.w	r0, #1342177280	; 0x50000000
 8003352:	e9c3 0100 	strd	r0, r1, [r3]
 8003356:	2102      	movs	r1, #2
 8003358:	e9c3 1203 	strd	r1, r2, [r3, #12]
 800335c:	e9c3 1206 	strd	r1, r2, [r3, #24]
 8003360:	4618      	mov	r0, r3
 8003362:	2101      	movs	r1, #1
 8003364:	e9c3 2208 	strd	r2, r2, [r3, #32]
 8003368:	e9c3 120b 	strd	r1, r2, [r3, #44]	; 0x2c
 800336c:	f7fd fc1f 	bl	8000bae <HAL_PCD_Init>
 8003370:	b108      	cbz	r0, 8003376 <USBD_LL_Init+0x3a>
 8003372:	f7fd f9b1 	bl	80006d8 <Error_Handler>
 8003376:	2180      	movs	r1, #128	; 0x80
 8003378:	4807      	ldr	r0, [pc, #28]	; (8003398 <USBD_LL_Init+0x5c>)
 800337a:	f7fe f8dc 	bl	8001536 <HAL_PCDEx_SetRxFiFo>
 800337e:	2240      	movs	r2, #64	; 0x40
 8003380:	2100      	movs	r1, #0
 8003382:	4805      	ldr	r0, [pc, #20]	; (8003398 <USBD_LL_Init+0x5c>)
 8003384:	f7fe f8b7 	bl	80014f6 <HAL_PCDEx_SetTxFiFo>
 8003388:	2280      	movs	r2, #128	; 0x80
 800338a:	2101      	movs	r1, #1
 800338c:	4802      	ldr	r0, [pc, #8]	; (8003398 <USBD_LL_Init+0x5c>)
 800338e:	f7fe f8b2 	bl	80014f6 <HAL_PCDEx_SetTxFiFo>
 8003392:	2000      	movs	r0, #0
 8003394:	bd08      	pop	{r3, pc}
 8003396:	bf00      	nop
 8003398:	20001704 	.word	0x20001704

0800339c <USBD_LL_Start>:
 800339c:	b508      	push	{r3, lr}
 800339e:	f8d0 0298 	ldr.w	r0, [r0, #664]	; 0x298
 80033a2:	f7fd fc8b 	bl	8000cbc <HAL_PCD_Start>
 80033a6:	2803      	cmp	r0, #3
 80033a8:	bf96      	itet	ls
 80033aa:	4b02      	ldrls	r3, [pc, #8]	; (80033b4 <USBD_LL_Start+0x18>)
 80033ac:	2002      	movhi	r0, #2
 80033ae:	5c18      	ldrbls	r0, [r3, r0]
 80033b0:	bd08      	pop	{r3, pc}
 80033b2:	bf00      	nop
 80033b4:	0800374a 	.word	0x0800374a

080033b8 <USBD_LL_OpenEP>:
 80033b8:	b510      	push	{r4, lr}
 80033ba:	461c      	mov	r4, r3
 80033bc:	f8d0 0298 	ldr.w	r0, [r0, #664]	; 0x298
 80033c0:	4613      	mov	r3, r2
 80033c2:	4622      	mov	r2, r4
 80033c4:	f7fd ff74 	bl	80012b0 <HAL_PCD_EP_Open>
 80033c8:	2803      	cmp	r0, #3
 80033ca:	bf96      	itet	ls
 80033cc:	4b01      	ldrls	r3, [pc, #4]	; (80033d4 <USBD_LL_OpenEP+0x1c>)
 80033ce:	2002      	movhi	r0, #2
 80033d0:	5c18      	ldrbls	r0, [r3, r0]
 80033d2:	bd10      	pop	{r4, pc}
 80033d4:	0800374a 	.word	0x0800374a

080033d8 <USBD_LL_CloseEP>:
 80033d8:	b508      	push	{r3, lr}
 80033da:	f8d0 0298 	ldr.w	r0, [r0, #664]	; 0x298
 80033de:	f7fd ff9f 	bl	8001320 <HAL_PCD_EP_Close>
 80033e2:	2803      	cmp	r0, #3
 80033e4:	bf96      	itet	ls
 80033e6:	4b02      	ldrls	r3, [pc, #8]	; (80033f0 <USBD_LL_CloseEP+0x18>)
 80033e8:	2002      	movhi	r0, #2
 80033ea:	5c18      	ldrbls	r0, [r3, r0]
 80033ec:	bd08      	pop	{r3, pc}
 80033ee:	bf00      	nop
 80033f0:	0800374a 	.word	0x0800374a

080033f4 <USBD_LL_StallEP>:
 80033f4:	b508      	push	{r3, lr}
 80033f6:	f8d0 0298 	ldr.w	r0, [r0, #664]	; 0x298
 80033fa:	f7fe f80c 	bl	8001416 <HAL_PCD_EP_SetStall>
 80033fe:	2803      	cmp	r0, #3
 8003400:	bf96      	itet	ls
 8003402:	4b02      	ldrls	r3, [pc, #8]	; (800340c <USBD_LL_StallEP+0x18>)
 8003404:	2002      	movhi	r0, #2
 8003406:	5c18      	ldrbls	r0, [r3, r0]
 8003408:	bd08      	pop	{r3, pc}
 800340a:	bf00      	nop
 800340c:	0800374a 	.word	0x0800374a

08003410 <USBD_LL_ClearStallEP>:
 8003410:	b508      	push	{r3, lr}
 8003412:	f8d0 0298 	ldr.w	r0, [r0, #664]	; 0x298
 8003416:	f7fe f838 	bl	800148a <HAL_PCD_EP_ClrStall>
 800341a:	2803      	cmp	r0, #3
 800341c:	bf96      	itet	ls
 800341e:	4b02      	ldrls	r3, [pc, #8]	; (8003428 <USBD_LL_ClearStallEP+0x18>)
 8003420:	2002      	movhi	r0, #2
 8003422:	5c18      	ldrbls	r0, [r3, r0]
 8003424:	bd08      	pop	{r3, pc}
 8003426:	bf00      	nop
 8003428:	0800374a 	.word	0x0800374a

0800342c <USBD_LL_IsStallEP>:
 800342c:	f011 0f80 	tst.w	r1, #128	; 0x80
 8003430:	f8d0 3298 	ldr.w	r3, [r0, #664]	; 0x298
 8003434:	f04f 021c 	mov.w	r2, #28
 8003438:	bf1b      	ittet	ne
 800343a:	f001 017f 	andne.w	r1, r1, #127	; 0x7f
 800343e:	fb02 3101 	mlane	r1, r2, r1, r3
 8003442:	fb02 3101 	mlaeq	r1, r2, r1, r3
 8003446:	f891 003e 	ldrbne.w	r0, [r1, #62]	; 0x3e
 800344a:	bf08      	it	eq
 800344c:	f891 01fe 	ldrbeq.w	r0, [r1, #510]	; 0x1fe
 8003450:	4770      	bx	lr
	...

08003454 <USBD_LL_SetUSBAddress>:
 8003454:	b508      	push	{r3, lr}
 8003456:	f8d0 0298 	ldr.w	r0, [r0, #664]	; 0x298
 800345a:	f7fd ff15 	bl	8001288 <HAL_PCD_SetAddress>
 800345e:	2803      	cmp	r0, #3
 8003460:	bf96      	itet	ls
 8003462:	4b02      	ldrls	r3, [pc, #8]	; (800346c <USBD_LL_SetUSBAddress+0x18>)
 8003464:	2002      	movhi	r0, #2
 8003466:	5c18      	ldrbls	r0, [r3, r0]
 8003468:	bd08      	pop	{r3, pc}
 800346a:	bf00      	nop
 800346c:	0800374a 	.word	0x0800374a

08003470 <USBD_LL_Transmit>:
 8003470:	b508      	push	{r3, lr}
 8003472:	f8d0 0298 	ldr.w	r0, [r0, #664]	; 0x298
 8003476:	f7fd ffae 	bl	80013d6 <HAL_PCD_EP_Transmit>
 800347a:	2803      	cmp	r0, #3
 800347c:	bf96      	itet	ls
 800347e:	4b02      	ldrls	r3, [pc, #8]	; (8003488 <USBD_LL_Transmit+0x18>)
 8003480:	2002      	movhi	r0, #2
 8003482:	5c18      	ldrbls	r0, [r3, r0]
 8003484:	bd08      	pop	{r3, pc}
 8003486:	bf00      	nop
 8003488:	0800374a 	.word	0x0800374a

0800348c <USBD_LL_PrepareReceive>:
 800348c:	b508      	push	{r3, lr}
 800348e:	f8d0 0298 	ldr.w	r0, [r0, #664]	; 0x298
 8003492:	f7fd ff74 	bl	800137e <HAL_PCD_EP_Receive>
 8003496:	2803      	cmp	r0, #3
 8003498:	bf96      	itet	ls
 800349a:	4b02      	ldrls	r3, [pc, #8]	; (80034a4 <USBD_LL_PrepareReceive+0x18>)
 800349c:	2002      	movhi	r0, #2
 800349e:	5c18      	ldrbls	r0, [r3, r0]
 80034a0:	bd08      	pop	{r3, pc}
 80034a2:	bf00      	nop
 80034a4:	0800374a 	.word	0x0800374a

080034a8 <USBD_LL_GetRxDataSize>:
 80034a8:	f8d0 0298 	ldr.w	r0, [r0, #664]	; 0x298
 80034ac:	f7fd bf8b 	b.w	80013c6 <HAL_PCD_EP_GetRxCount>

080034b0 <__errno>:
 80034b0:	4b01      	ldr	r3, [pc, #4]	; (80034b8 <__errno+0x8>)
 80034b2:	6818      	ldr	r0, [r3, #0]
 80034b4:	4770      	bx	lr
 80034b6:	bf00      	nop
 80034b8:	2000017c 	.word	0x2000017c

080034bc <__libc_init_array>:
 80034bc:	b570      	push	{r4, r5, r6, lr}
 80034be:	4e0d      	ldr	r6, [pc, #52]	; (80034f4 <__libc_init_array+0x38>)
 80034c0:	4c0d      	ldr	r4, [pc, #52]	; (80034f8 <__libc_init_array+0x3c>)
 80034c2:	1ba4      	subs	r4, r4, r6
 80034c4:	10a4      	asrs	r4, r4, #2
 80034c6:	2500      	movs	r5, #0
 80034c8:	42a5      	cmp	r5, r4
 80034ca:	d109      	bne.n	80034e0 <__libc_init_array+0x24>
 80034cc:	4e0b      	ldr	r6, [pc, #44]	; (80034fc <__libc_init_array+0x40>)
 80034ce:	4c0c      	ldr	r4, [pc, #48]	; (8003500 <__libc_init_array+0x44>)
 80034d0:	f000 f8f2 	bl	80036b8 <_init>
 80034d4:	1ba4      	subs	r4, r4, r6
 80034d6:	10a4      	asrs	r4, r4, #2
 80034d8:	2500      	movs	r5, #0
 80034da:	42a5      	cmp	r5, r4
 80034dc:	d105      	bne.n	80034ea <__libc_init_array+0x2e>
 80034de:	bd70      	pop	{r4, r5, r6, pc}
 80034e0:	f856 3025 	ldr.w	r3, [r6, r5, lsl #2]
 80034e4:	4798      	blx	r3
 80034e6:	3501      	adds	r5, #1
 80034e8:	e7ee      	b.n	80034c8 <__libc_init_array+0xc>
 80034ea:	f856 3025 	ldr.w	r3, [r6, r5, lsl #2]
 80034ee:	4798      	blx	r3
 80034f0:	3501      	adds	r5, #1
 80034f2:	e7f2      	b.n	80034da <__libc_init_array+0x1e>
 80034f4:	08003758 	.word	0x08003758
 80034f8:	08003758 	.word	0x08003758
 80034fc:	08003758 	.word	0x08003758
 8003500:	0800375c 	.word	0x0800375c

08003504 <malloc>:
 8003504:	4b02      	ldr	r3, [pc, #8]	; (8003510 <malloc+0xc>)
 8003506:	4601      	mov	r1, r0
 8003508:	6818      	ldr	r0, [r3, #0]
 800350a:	f000 b861 	b.w	80035d0 <_malloc_r>
 800350e:	bf00      	nop
 8003510:	2000017c 	.word	0x2000017c

08003514 <free>:
 8003514:	4b02      	ldr	r3, [pc, #8]	; (8003520 <free+0xc>)
 8003516:	4601      	mov	r1, r0
 8003518:	6818      	ldr	r0, [r3, #0]
 800351a:	f000 b80b 	b.w	8003534 <_free_r>
 800351e:	bf00      	nop
 8003520:	2000017c 	.word	0x2000017c

08003524 <memset>:
 8003524:	4402      	add	r2, r0
 8003526:	4603      	mov	r3, r0
 8003528:	4293      	cmp	r3, r2
 800352a:	d100      	bne.n	800352e <memset+0xa>
 800352c:	4770      	bx	lr
 800352e:	f803 1b01 	strb.w	r1, [r3], #1
 8003532:	e7f9      	b.n	8003528 <memset+0x4>

08003534 <_free_r>:
 8003534:	b538      	push	{r3, r4, r5, lr}
 8003536:	4605      	mov	r5, r0
 8003538:	2900      	cmp	r1, #0
 800353a:	d045      	beq.n	80035c8 <_free_r+0x94>
 800353c:	f851 3c04 	ldr.w	r3, [r1, #-4]
 8003540:	1f0c      	subs	r4, r1, #4
 8003542:	2b00      	cmp	r3, #0
 8003544:	bfb8      	it	lt
 8003546:	18e4      	addlt	r4, r4, r3
 8003548:	f000 f8b4 	bl	80036b4 <__malloc_lock>
 800354c:	4a1f      	ldr	r2, [pc, #124]	; (80035cc <_free_r+0x98>)
 800354e:	6813      	ldr	r3, [r2, #0]
 8003550:	4610      	mov	r0, r2
 8003552:	b933      	cbnz	r3, 8003562 <_free_r+0x2e>
 8003554:	6063      	str	r3, [r4, #4]
 8003556:	6014      	str	r4, [r2, #0]
 8003558:	4628      	mov	r0, r5
 800355a:	e8bd 4038 	ldmia.w	sp!, {r3, r4, r5, lr}
 800355e:	f000 b8aa 	b.w	80036b6 <__malloc_unlock>
 8003562:	42a3      	cmp	r3, r4
 8003564:	d90c      	bls.n	8003580 <_free_r+0x4c>
 8003566:	6821      	ldr	r1, [r4, #0]
 8003568:	1862      	adds	r2, r4, r1
 800356a:	4293      	cmp	r3, r2
 800356c:	bf04      	itt	eq
 800356e:	681a      	ldreq	r2, [r3, #0]
 8003570:	685b      	ldreq	r3, [r3, #4]
 8003572:	6063      	str	r3, [r4, #4]
 8003574:	bf04      	itt	eq
 8003576:	1852      	addeq	r2, r2, r1
 8003578:	6022      	streq	r2, [r4, #0]
 800357a:	6004      	str	r4, [r0, #0]
 800357c:	e7ec      	b.n	8003558 <_free_r+0x24>
 800357e:	4613      	mov	r3, r2
 8003580:	685a      	ldr	r2, [r3, #4]
 8003582:	b10a      	cbz	r2, 8003588 <_free_r+0x54>
 8003584:	42a2      	cmp	r2, r4
 8003586:	d9fa      	bls.n	800357e <_free_r+0x4a>
 8003588:	6819      	ldr	r1, [r3, #0]
 800358a:	1858      	adds	r0, r3, r1
 800358c:	42a0      	cmp	r0, r4
 800358e:	d10b      	bne.n	80035a8 <_free_r+0x74>
 8003590:	6820      	ldr	r0, [r4, #0]
 8003592:	4401      	add	r1, r0
 8003594:	1858      	adds	r0, r3, r1
 8003596:	4282      	cmp	r2, r0
 8003598:	6019      	str	r1, [r3, #0]
 800359a:	d1dd      	bne.n	8003558 <_free_r+0x24>
 800359c:	6810      	ldr	r0, [r2, #0]
 800359e:	6852      	ldr	r2, [r2, #4]
 80035a0:	605a      	str	r2, [r3, #4]
 80035a2:	4401      	add	r1, r0
 80035a4:	6019      	str	r1, [r3, #0]
 80035a6:	e7d7      	b.n	8003558 <_free_r+0x24>
 80035a8:	d902      	bls.n	80035b0 <_free_r+0x7c>
 80035aa:	230c      	movs	r3, #12
 80035ac:	602b      	str	r3, [r5, #0]
 80035ae:	e7d3      	b.n	8003558 <_free_r+0x24>
 80035b0:	6820      	ldr	r0, [r4, #0]
 80035b2:	1821      	adds	r1, r4, r0
 80035b4:	428a      	cmp	r2, r1
 80035b6:	bf04      	itt	eq
 80035b8:	6811      	ldreq	r1, [r2, #0]
 80035ba:	6852      	ldreq	r2, [r2, #4]
 80035bc:	6062      	str	r2, [r4, #4]
 80035be:	bf04      	itt	eq
 80035c0:	1809      	addeq	r1, r1, r0
 80035c2:	6021      	streq	r1, [r4, #0]
 80035c4:	605c      	str	r4, [r3, #4]
 80035c6:	e7c7      	b.n	8003558 <_free_r+0x24>
 80035c8:	bd38      	pop	{r3, r4, r5, pc}
 80035ca:	bf00      	nop
 80035cc:	20000204 	.word	0x20000204

080035d0 <_malloc_r>:
 80035d0:	b570      	push	{r4, r5, r6, lr}
 80035d2:	1ccd      	adds	r5, r1, #3
 80035d4:	f025 0503 	bic.w	r5, r5, #3
 80035d8:	3508      	adds	r5, #8
 80035da:	2d0c      	cmp	r5, #12
 80035dc:	bf38      	it	cc
 80035de:	250c      	movcc	r5, #12
 80035e0:	2d00      	cmp	r5, #0
 80035e2:	4606      	mov	r6, r0
 80035e4:	db01      	blt.n	80035ea <_malloc_r+0x1a>
 80035e6:	42a9      	cmp	r1, r5
 80035e8:	d903      	bls.n	80035f2 <_malloc_r+0x22>
 80035ea:	230c      	movs	r3, #12
 80035ec:	6033      	str	r3, [r6, #0]
 80035ee:	2000      	movs	r0, #0
 80035f0:	bd70      	pop	{r4, r5, r6, pc}
 80035f2:	f000 f85f 	bl	80036b4 <__malloc_lock>
 80035f6:	4a21      	ldr	r2, [pc, #132]	; (800367c <_malloc_r+0xac>)
 80035f8:	6814      	ldr	r4, [r2, #0]
 80035fa:	4621      	mov	r1, r4
 80035fc:	b991      	cbnz	r1, 8003624 <_malloc_r+0x54>
 80035fe:	4c20      	ldr	r4, [pc, #128]	; (8003680 <_malloc_r+0xb0>)
 8003600:	6823      	ldr	r3, [r4, #0]
 8003602:	b91b      	cbnz	r3, 800360c <_malloc_r+0x3c>
 8003604:	4630      	mov	r0, r6
 8003606:	f000 f83d 	bl	8003684 <_sbrk_r>
 800360a:	6020      	str	r0, [r4, #0]
 800360c:	4629      	mov	r1, r5
 800360e:	4630      	mov	r0, r6
 8003610:	f000 f838 	bl	8003684 <_sbrk_r>
 8003614:	1c43      	adds	r3, r0, #1
 8003616:	d124      	bne.n	8003662 <_malloc_r+0x92>
 8003618:	230c      	movs	r3, #12
 800361a:	6033      	str	r3, [r6, #0]
 800361c:	4630      	mov	r0, r6
 800361e:	f000 f84a 	bl	80036b6 <__malloc_unlock>
 8003622:	e7e4      	b.n	80035ee <_malloc_r+0x1e>
 8003624:	680b      	ldr	r3, [r1, #0]
 8003626:	1b5b      	subs	r3, r3, r5
 8003628:	d418      	bmi.n	800365c <_malloc_r+0x8c>
 800362a:	2b0b      	cmp	r3, #11
 800362c:	d90f      	bls.n	800364e <_malloc_r+0x7e>
 800362e:	600b      	str	r3, [r1, #0]
 8003630:	50cd      	str	r5, [r1, r3]
 8003632:	18cc      	adds	r4, r1, r3
 8003634:	4630      	mov	r0, r6
 8003636:	f000 f83e 	bl	80036b6 <__malloc_unlock>
 800363a:	f104 000b 	add.w	r0, r4, #11
 800363e:	1d23      	adds	r3, r4, #4
 8003640:	f020 0007 	bic.w	r0, r0, #7
 8003644:	1ac3      	subs	r3, r0, r3
 8003646:	d0d3      	beq.n	80035f0 <_malloc_r+0x20>
 8003648:	425a      	negs	r2, r3
 800364a:	50e2      	str	r2, [r4, r3]
 800364c:	e7d0      	b.n	80035f0 <_malloc_r+0x20>
 800364e:	428c      	cmp	r4, r1
 8003650:	684b      	ldr	r3, [r1, #4]
 8003652:	bf16      	itet	ne
 8003654:	6063      	strne	r3, [r4, #4]
 8003656:	6013      	streq	r3, [r2, #0]
 8003658:	460c      	movne	r4, r1
 800365a:	e7eb      	b.n	8003634 <_malloc_r+0x64>
 800365c:	460c      	mov	r4, r1
 800365e:	6849      	ldr	r1, [r1, #4]
 8003660:	e7cc      	b.n	80035fc <_malloc_r+0x2c>
 8003662:	1cc4      	adds	r4, r0, #3
 8003664:	f024 0403 	bic.w	r4, r4, #3
 8003668:	42a0      	cmp	r0, r4
 800366a:	d005      	beq.n	8003678 <_malloc_r+0xa8>
 800366c:	1a21      	subs	r1, r4, r0
 800366e:	4630      	mov	r0, r6
 8003670:	f000 f808 	bl	8003684 <_sbrk_r>
 8003674:	3001      	adds	r0, #1
 8003676:	d0cf      	beq.n	8003618 <_malloc_r+0x48>
 8003678:	6025      	str	r5, [r4, #0]
 800367a:	e7db      	b.n	8003634 <_malloc_r+0x64>
 800367c:	20000204 	.word	0x20000204
 8003680:	20000208 	.word	0x20000208

08003684 <_sbrk_r>:
 8003684:	b538      	push	{r3, r4, r5, lr}
 8003686:	4c06      	ldr	r4, [pc, #24]	; (80036a0 <_sbrk_r+0x1c>)
 8003688:	2300      	movs	r3, #0
 800368a:	4605      	mov	r5, r0
 800368c:	4608      	mov	r0, r1
 800368e:	6023      	str	r3, [r4, #0]
 8003690:	f7fd f888 	bl	80007a4 <_sbrk>
 8003694:	1c43      	adds	r3, r0, #1
 8003696:	d102      	bne.n	800369e <_sbrk_r+0x1a>
 8003698:	6823      	ldr	r3, [r4, #0]
 800369a:	b103      	cbz	r3, 800369e <_sbrk_r+0x1a>
 800369c:	602b      	str	r3, [r5, #0]
 800369e:	bd38      	pop	{r3, r4, r5, pc}
 80036a0:	20001b0c 	.word	0x20001b0c

080036a4 <strcpy>:
 80036a4:	4603      	mov	r3, r0
 80036a6:	f811 2b01 	ldrb.w	r2, [r1], #1
 80036aa:	f803 2b01 	strb.w	r2, [r3], #1
 80036ae:	2a00      	cmp	r2, #0
 80036b0:	d1f9      	bne.n	80036a6 <strcpy+0x2>
 80036b2:	4770      	bx	lr

080036b4 <__malloc_lock>:
 80036b4:	4770      	bx	lr

080036b6 <__malloc_unlock>:
 80036b6:	4770      	bx	lr

080036b8 <_init>:
 80036b8:	b5f8      	push	{r3, r4, r5, r6, r7, lr}
 80036ba:	bf00      	nop
 80036bc:	bcf8      	pop	{r3, r4, r5, r6, r7}
 80036be:	bc08      	pop	{r3}
 80036c0:	469e      	mov	lr, r3
 80036c2:	4770      	bx	lr

080036c4 <_fini>:
 80036c4:	b5f8      	push	{r3, r4, r5, r6, r7, lr}
 80036c6:	bf00      	nop
 80036c8:	bcf8      	pop	{r3, r4, r5, r6, r7}
 80036ca:	bc08      	pop	{r3}
 80036cc:	469e      	mov	lr, r3
 80036ce:	4770      	bx	lr
